******************************************************************************
                  TI ARM Linker PC v18.12.3                    
******************************************************************************
>> Linked Tue Nov 19 16:31:49 2019

OUTPUT FILE NAME:   <httpget_CC3220S_LAUNCHXL_tirtos_ccs2.out>
ENTRY POINT SYMBOL: "_c_int00"  address: 200163dd


MEMORY CONFIGURATION

         name            origin    length      used     unused   attr    fill
----------------------  --------  ---------  --------  --------  ----  --------
  SRAM0                 20000000   00004000  0000070c  000038f4  RW X
  SRAM                  20004000   0003c000  00020c70  0001b390  RW X


SEGMENT ALLOCATION MAP

run origin  load origin   length   init length attrs members
----------  ----------- ---------- ----------- ----- -------
20003c00    20003c00    00000400   00000000    rw-
  20003c00    20003c00    00000400   00000000    rw- .stack
20004000    20004000    0001d4f8   000154f2    r-x
  20004000    20004000    0000003c   0000003c    r-- .resetVecs
  20004040    20004040    000154b2   000154b2    r-x .text
  200194f8    200194f8    00008000   00000000    r-- .priheap
20021800    20021800    00001518   00000000    rw-
  20021800    20021800    00001518   00000000    rw- .bss
20022d18    20022d18    00000f81   00000f81    r--
  20022d18    20022d18    00000f81   00000f81    r-- .const
20023c9c    20023c9c    00000e41   00000000    rw-
  20023c9c    20023c9c    00000e41   00000000    rw- .data
20024ae0    20024ae0    000004a8   000004a8    r--
  20024ae0    20024ae0    000004a8   000004a8    r-- .cinit


SECTION ALLOCATION MAP

 output                                  attributes/
section   page    origin      length       input sections
--------  ----  ----------  ----------   ----------------
.vecs      0    20000000    0000030c     NOLOAD SECTION
                  20000000    0000030c     release_pem4.oem4 (.vecs)

.stack     0    20003c00    00000400     UNINITIALIZED
                  20003c00    00000400     --HOLE--

.text      0    20004040    000154b2     
                  20004040    00000a4e     rtsv7M4_T_le_eabi.lib : _printfi.c.obj (.text:__TI_printfi)
                  20004a8e    00000002     ti_drivers_config.obj (.text:Board_initHook)
                  20004a90    000008cc     simplelink.a : driver.obj (.text:_SlDrvMsgRead)
                  2000535c    0000069c     httpget.obj (.text:httpTask)
                  200059f8    000004bc     simplelink.a : sl_socket.obj (.text:_SlSocketHandleAsync_Select)
                  20005eb4    0000042c     driverlib.a : prcm.obj (.text:PRCMCC3200MCUInit)
                  200062e0    0000040c     httpclient_release.a : httpclient.oem4 (.text:sendRequest)
                  200066ec    00000384     simplelink.a : driver.obj (.text:_SlDrvMsgWrite)
                  20006a70    000002e0                  : driver.obj (.text:_SlDrvWaitForPoolObj)
                  20006d50    000002d8                  : driver.obj (.text:_SlDrvRxHdrRead)
                  20007028    000002b4                  : sl_socket.obj (.text:sl_Select)
                  200072dc    00000294                  : driver.obj (.text:_SlDrvReleasePoolObj)
                  20007570    00000280     drivers_cc32xx.aem4 : UARTCC32XX.oem4 (.text:UARTCC32XX_open)
                  200077f0    0000027c     simplelink.a : wlan.obj (.text:sl_WlanConnect)
                  20007a6c    00000268     rtsv7M4_T_le_eabi.lib : _printfi.c.obj (.text:_pconv_a)
                  20007cd4    0000025c     simplelink.a : driver.obj (.text:_SlDrvDataReadOp)
                  20007f30    00000228     PEMS.obj (.text:update_values)
                  20008158    00000224     simplelink.a : driver.obj (.text:_SlDrvDriverCBInit)
                  2000837c    00000218                  : driver.obj (.text:_SlDrvDataWriteOp)
                  20008594    00000214     PEMS.obj (.text:execute_reading)
                  200087a8    000001fc     httpclient_release.a : httpclient.oem4 (.text:SlNetSock_connectURI)
                  200089a4    000001f4     simplelink.a : driver.obj (.text:_SlDrvMsgReadCmdCtx)
                  20008b98    000001f2                  : netapp.obj (.text:_SlNetAppEventHandler)
                  20008d8a    00000002     drivers_cc32xx.aem4 : CaptureCC32XX.oem4 (.text:CaptureCC32XX_init)
                  20008d8c    000001ec     PEMS.obj (.text:mainThread)
                  20008f78    000001e0     httpclient_release.a : httpclient.oem4 (.text:HTTPClient_connect2)
                  20009158    000001d4     drivers_cc32xx.aem4 : GPIOCC32XX.oem4 (.text:GPIO_setConfig)
                  2000932c    000001d0                         : SPICC32XXDMA.oem4 (.text:SPICC32XXDMA_transfer)
                  200094fc    000001cc     rtsv7M4_T_le_eabi.lib : _printfi.c.obj (.text:_pconv_g)
                  200096c8    000001c8     simplelink.a : device.obj (.text:sl_Stop)
                  20009890    000001b8     dht22.obj (.text:DHT_translateData)
                  20009a48    000001b8     drivers_cc32xx.aem4 : SPICC32XXDMA.oem4 (.text:configDMA)
                  20009c00    000001b6     rtsv7M4_T_le_eabi.lib : fd_add_t2.asm.obj (.text)
                  20009db6    00000002     drivers_cc32xx.aem4 : PWMTimerCC32XX.oem4 (.text:PWMTimerCC32XX_init)
                  20009db8    000001b4     simplelink.a : driver.obj (.text:_SlDrvReleaseAllActivePendingPoolObj)
                  20009f6c    000001ac                  : sl_socket.obj (.text:sl_Accept)
                  2000a118    000001a0     httpclient_release.a : httpclient.oem4 (.text:manageResponseHeaders)
                  2000a2b8    00000194                          : httpclient.oem4 (.text:redirect)
                  2000a44c    0000018c     simplelink.a : sl_socket.obj (.text:_SlDrvRegisterForSelectAsync)
                  2000a5d8    00000184                  : driver.obj (.text:_SlDrvFindAndSetActiveObj)
                  2000a75c    00000178                  : sl_socket.obj (.text:sl_Connect)
                  2000a8d4    00000177     httpclient_release.a : httpclient.oem4 (.text:readResponseHeader)
                  2000aa4b    00000001     --HOLE-- [fill = 0]
                  2000aa4c    00000170     simplelink.a : netapp.obj (.text:sl_NetAppDnsGetHostByName)
                  2000abbc    00000158     drivers_cc32xx.aem4 : SPICC32XXDMA.oem4 (.text:SPICC32XXDMA_open)
                  2000ad14    00000154     simplelink.a : sl_socket.obj (.text:sl_RecvFrom)
                  2000ae68    00000150     platform.obj (.text:SimpleLinkNetAppEventHandler)
                  2000afb8    0000014c     dpl_cc32xx.aem4 : PowerCC32XX_tirtos.oem4 (.text:PowerCC32XX_sleepPolicy)
                  2000b104    0000014c     simplelink.a : sl_socket.obj (.text:sl_StartTLS)
                  2000b250    00000148     drivers_cc32xx.aem4 : PowerCC32XX.oem4 (.text:parkPins)
                  2000b398    00000148     httpclient_release.a : httpclient.oem4 (.text:parseURI)
                  2000b4e0    00000144     PEMS.obj (.text:thresholdMax)
                  2000b624    00000144     PEMS.obj (.text:thresholdMin)
                  2000b768    00000140     drivers_cc32xx.aem4 : PWMTimerCC32XX.oem4 (.text:PWMTimerCC32XX_setDutyAndPeriod)
                  2000b8a8    00000140     simplelink.a : driver.obj (.text:_SlDrvMsgReadSpawnCtx)
                  2000b9e8    0000013c                  : driver.obj (.text:_SlDrvDriverCBDeinit)
                  2000bb24    0000013c                  : sl_socket.obj (.text:_SlDrvGetNextTimeoutValue)
                  2000bc60    0000013c     rtsv7M4_T_le_eabi.lib : _printfi.c.obj (.text:_pconv_e)
                  2000bd9c    00000138     drivers_cc32xx.aem4 : PowerCC32XX.oem4 (.text:Power_sleep)
                  2000bed4    00000138     simplelink.a : driver.obj (.text:_SlSpawnMsgListInsert)
                  2000c00c    00000136     rtsv7M4_T_le_eabi.lib : fd_div_t2.asm.obj (.text)
                  2000c142    00000002     drivers_cc32xx.aem4 : TimerCC32XX.oem4 (.text:TimerCC32XX_init)
                  2000c144    00000134     simplelink.a : sl_socket.obj (.text:_SlSocketHandleAsync_StartTLS)
                  2000c278    00000130     sysbios.aem4 : BIOS.obj (.text:ti_sysbios_knl_Semaphore_pend__E)
                  2000c3a8    00000128     drivers_cc32xx.aem4 : TimerCC32XX.oem4 (.text:TimerCC32XX_open)
                  2000c4d0    00000128     simplelink.a : driver.obj (.text:_SlDrvClassifyRxMsg)
                  2000c5f8    00000124                  : fs.obj (.text:sl_FsOpen)
                  2000c71c    00000121     httpclient_release.a : httpclient.oem4 (.text:getChunkedData)
                  2000c83d    00000001     --HOLE-- [fill = 0]
                  2000c83e    00000002     drivers_cc32xx.aem4 : UARTCC32XX.oem4 (.text:UARTCC32XX_init)
                  2000c840    00000120                         : UARTCC32XX.oem4 (.text:UARTCC32XX_close)
                  2000c960    00000120     simplelink.a : driver.obj (.text:_SlDrvAsyncEventGenericHandler)
                  2000ca80    00000120     rtsv7M4_T_le_eabi.lib : _printfi.c.obj (.text:fcvt)
                  2000cba0    00000120     simplelink.a : device.obj (.text:sl_Start)
                  2000ccc0    00000120     sysbios.aem4 : BIOS.obj (.text:xdc_runtime_Startup_startMods__I)
                  2000cde0    00000118     simplelink.a : netapp.obj (.text:_SlNetAppHandleAsync_DnsGetHostByService)
                  2000cef8    00000114     rtsv7M4_T_le_eabi.lib : fputs.c.obj (.text:fputs)
                  2000d00c    00000110     PEMS.obj (.text:enter)
                  2000d11c    00000110     platform.obj (.text:mainPost)
                  2000d22c    00000110     rtsv7M4_T_le_eabi.lib : strtoul.c.obj (.text:strtoul)
                  2000d33c    00000004     dpl_cc32xx.aem4 : ClockP_tirtos.oem4 (.text:ClockP_getCpuFreq)
                  2000d340    00000110     sysbios.aem4 : BIOS.obj (.text:ti_sysbios_knl_Task_postInit__I)
                  2000d450    00000108     httpclient_release.a : httpclient.oem4 (.text:HTTPClient_setHeader)
                  2000d558    00000108     slnetsock_release.a : slnetutils.oem4 (.text:SlNetUtil_str2BinIpV6)
                  2000d660    00000104     simplelink.a : device.obj (.text:_SlDeviceEventHandler)
                  2000d764    00000104                  : driver.obj (.text:_SlDrvCmdOp)
                  2000d868    00000104     sysbios.aem4 : BIOS.obj (.text:ti_sysbios_knl_Task_Instance_finalize__E)
                  2000d96c    00000100     simplelink.a : driver.obj (.text:_SlDrvObjGlobalLockWaitForever)
                  2000da6c    00000100                  : fs.obj (.text:sl_FsWrite)
                  2000db6c    000000fc     rtsv7M4_T_le_eabi.lib : fd_mul_t2.asm.obj (.text)
                  2000dc68    000000fc     simplelink.a : sl_socket.obj (.text:sl_Close)
                  2000dd64    000000f8     slnetifwifi.a : slnetifwifi.obj (.text:SlNetIfWifi_loadSecObj)
                  2000de5c    000000f4     httpclient_release.a : httpclient.oem4 (.text:httpProxyTunnel)
                  2000df50    000000f4     lcd.obj (.text:lcd_init_4bit)
                  2000e044    000000f4     simplelink.a : sl_socket.obj (.text:sl_SendTo)
                  2000e138    000000f2     drivers_cc32xx.aem4 : SPICC32XXDMA.oem4 (.text:SPICC32XXDMA_transferCancel)
                  2000e22a    000000f2                         : UARTCC32XX.oem4 (.text:UARTCC32XX_control)
                  2000e31c    000000f0                         : PWMTimerCC32XX.oem4 (.text:PWMTimerCC32XX_open)
                  2000e40c    00000004     dpl_cc32xx.aem4 : ClockP_tirtos.oem4 (.text:ClockP_setTimeout)
                  2000e410    000000f0     sysbios.aem4 : BIOS.obj (.text:pthread_create)
                  2000e500    000000f0                  : BIOS.obj (.text:ti_sysbios_knl_Task_Instance_init__E)
                  2000e5f0    000000ec                  : BIOS.obj (.text:clock_gettime)
                  2000e6dc    000000e8     slnetsock_release.a : slnetif.oem4 (.text:SlNetIf_add)
                  2000e7c4    000000e4     drivers_cc32xx.aem4 : CaptureCC32XX.oem4 (.text:CaptureCC32XX_open)
                  2000e8a8    000000dc     rtsv7M4_T_le_eabi.lib : setvbuf.c.obj (.text:setvbuf)
                  2000e984    000000dc     PEMS.obj (.text:update_text)
                  2000ea60    000000d8     drivers_cc32xx.aem4 : SPICC32XXDMA.oem4 (.text:SPICC32XXDMA_close)
                  2000eb38    000000d8     simplelink.a : device.obj (.text:_SlDeviceHandleAsync_InitComplete)
                  2000ec10    000000d8                  : driver.obj (.text:_SlDrvWaitForInternalAsyncEvent)
                  2000ece8    000000d8                  : netapp.obj (.text:_SlNetAppHandleAsync_NetAppReceive)
                  2000edc0    000000d2     httpclient_release.a : httpclient.oem4 (.text:HTTPClient_connect)
                  2000ee92    00000002     rtsv7M4_T_le_eabi.lib : _lock.c.obj (.text:_nop)
                  2000ee94    000000d0     simplelink.a : driver.obj (.text:_SlDrvRemoveFromList)
                  2000ef64    000000d0     httpclient_release.a : httpclient.oem4 (.text:getStatus)
                  2000f034    000000d0     rtsv7M4_T_le_eabi.lib : s_scalbn.c.obj (.text:scalbn)
                  2000f104    00000004     dpl_cc32xx.aem4 : ClockP_tirtos.oem4 (.text:ClockP_start)
                  2000f108    000000d0     sysbios.aem4 : BIOS.obj (.text:ti_sysbios_heaps_HeapMem_alloc__E)
                  2000f1d8    000000cc     httpclient_release.a : httpclient.oem4 (.text:sprsend)
                  2000f2a4    000000cc     sysbios.aem4 : m3_Hwi_asm.obj (.text:ti_sysbios_family_arm_m3_Hwi_dispatch__I)
                  2000f370    000000ca     drivers_cc32xx.aem4 : UARTCC32XX.oem4 (.text:UARTCC32XX_write)
                  2000f43a    000000c8                         : SPICC32XXDMA.oem4 (.text:spiHwiFxn)
                  2000f502    00000002     rtsv7M4_T_le_eabi.lib : div0.asm.obj (.text)
                  2000f504    000000c4     drivers_cc32xx.aem4 : GPIOCC32XX.oem4 (.text:GPIO_init)
                  2000f5c8    000000c4                         : PWMTimerCC32XX.oem4 (.text:PWMTimerCC32XX_stop)
                  2000f68c    00000004     dpl_cc32xx.aem4 : ClockP_tirtos.oem4 (.text:ClockP_stop)
                  2000f690    000000c4     sysbios.aem4 : BIOS.obj (.text:ti_sysbios_knl_Task_sleep__E)
                  2000f754    000000c0     simplelink.a : cc_pal.obj (.text:NwpPowerOff)
                  2000f814    000000c0     httpclient_release.a : httpclient.oem4 (.text:resHeaderFieldHandler)
                  2000f8d4    000000c0     drivers_cc32xx.aem4 : PowerCC32XX.oem4 (.text:restoreParkedPins)
                  2000f994    000000c0     simplelink.a : netcfg.obj (.text:sl_NetCfgGet)
                  2000fa54    000000bc                  : netapp.obj (.text:_SlNetAppSendResponse)
                  2000fb10    000000bc                  : sl_socket.obj (.text:sl_Send)
                  2000fbcc    00000004     dpl_cc32xx.aem4 : HwiP_tirtos.oem4 (.text:HwiP_clearInterrupt)
                  2000fbd0    000000bc     sysbios.aem4 : BIOS.obj (.text:xdc_runtime_Core_createObject__I)
                  2000fc8c    000000ba     drivers_cc32xx.aem4 : UARTCC32XX.oem4 (.text:UARTCC32XX_readPolling)
                  2000fd46    00000002     release_pem4.oem4 (.text:ti_sysbios_BIOS_nullFunc__I)
                  2000fd48    000000b8     httpclient_release.a : httpclient.oem4 (.text:HTTPClient_readResponseBody)
                  2000fe00    000000b8     drivers_cc32xx.aem4 : PWMTimerCC32XX.oem4 (.text:PWMTimerCC32XX_setDuty)
                  2000feb8    000000b8     simplelink.a : netapp.obj (.text:_SlNetAppHandleAsync_DnsGetHostByName)
                  2000ff70    000000b8                  : netapp.obj (.text:_SlNetAppHandleAsync_PingResponse)
                  20010028    000000b8     drivers_cc32xx.aem4 : UARTCC32XX.oem4 (.text:initHw)
                  200100e0    000000b8     simplelink.a : wlan.obj (.text:sl_WlanGet)
                  20010198    000000b8     sysbios.aem4 : BIOS.obj (.text:ti_sysbios_family_arm_m3_Hwi_Instance_init__E)
                  20010250    000000b6     drivers_cc32xx.aem4 : UARTCC32XX.oem4 (.text:readTaskCallback)
                  20010306    00000002     release_pem4.oem4 (.text:xdc_runtime_Startup_reset__I)
                  20010308    000000b4     dht22.obj (.text:DHT_read)
                  200103bc    000000b4     simplelink.a : driver.obj (.text:_SlDrvHandleFatalError)
                  20010470    000000b4                  : netutil.obj (.text:_SlNetUtilHandleAsync_Cmd)
                  20010524    000000b4                  : sl_socket.obj (.text:sl_GetSockOpt)
                  200105d8    000000b1     rtsv7M4_T_le_eabi.lib : _printfi.c.obj (.text:_ltostr)
                  20010689    00000003     --HOLE-- [fill = 0]
                  2001068c    000000b0     slnetifwifi.a : slnetifwifi.obj (.text:SlNetIfWifi_getSockOpt)
                  2001073c    000000ae                   : slnetifwifi.obj (.text:matchModeByRole)
                  200107ea    000000ae     drivers_cc32xx.aem4 : UARTCC32XX.oem4 (.text:readIsrTextBlocking)
                  20010898    000000ac     MHZ16.obj (.text:UART_CO2_init)
                  20010944    000000ac     simplelink.a : sl_socket.obj (.text:_SlSocketHandleAsync_Close)
                  200109f0    000000ac                  : sl_socket.obj (.text:_SlSocketHandleAsync_Connect)
                  20010a9c    000000ac     httpclient_release.a : httpclient.oem4 (.text:sendReqHeaders)
                  20010b48    000000a8     driverlib.a : prcm.obj (.text:PRCMPeripheralClockGet)
                  20010bf0    000000a8     drivers_cc32xx.aem4 : PowerCC32XX.oem4 (.text:PowerCC32XX_configureWakeup)
                  20010c98    000000a8                         : UARTCC32XX.oem4 (.text:readTaskBlocking)
                  20010d40    000000a8     simplelink.a : fs.obj (.text:sl_FsClose)
                  20010de8    000000a6                  : driver.obj (.text:_SlDrvIsTimeoutExpired)
                  20010e8e    00000002     --HOLE-- [fill = 0]
                  20010e90    000000a4     drivers_cc32xx.aem4 : PWMTimerCC32XX.oem4 (.text:initHw)
                  20010f34    000000a4     simplelink.a : sl_socket.obj (.text:sl_Bind)
                  20010fd8    000000a4     sysbios.aem4 : BIOS.obj (.text:ti_sysbios_knl_Task_setPri__E)
                  2001107c    000000a2     drivers_cc32xx.aem4 : UARTCC32XX.oem4 (.text:readIsrTextCallback)
                  2001111e    000000a2                         : UARTCC32XX.oem4 (.text:writeData)
                  200111c0    000000a0     simplelink.a : fs.obj (.text:FsGetCreateFsMode)
                  20011260    000000a0     IRBlaster.obj (.text:IR_Init)
                  20011300    000000a0     simplelink.a : sl_socket.obj (.text:_SlDrvUnRegisterForSelectAsync)
                  200113a0    000000a0                  : driver.obj (.text:_SlSpawnMsgListProcess)
                  20011440    000000a0     auto_init.aem4 : auto_init.oem4 (.text)
                  200114e0    0000009e     simplelink.a : cc_pal.obj (.text:spi_Read)
                  2001157e    0000009e                  : cc_pal.obj (.text:spi_Write)
                  2001161c    00000004     dpl_cc32xx.aem4 : HwiP_tirtos.oem4 (.text:HwiP_disable)
                  20011620    0000009c     sysbios.aem4 : BIOS.obj (.text:_pthread_removeThreadKeys)
                  200116bc    0000009c     rtsv7M4_T_le_eabi.lib : memcpy_t2.asm.obj (.text)
                  20011758    00000098     httpclient_release.a : httpclient.oem4 (.text:HTTPClient_sendRequest)
                  200117f0    00000098     drivers_cc32xx.aem4 : PWMTimerCC32XX.oem4 (.text:PWMTimerCC32XX_setPeriod)
                  20011888    00000098                         : GPIOCC32XX.oem4 (.text:powerNotifyFxn)
                  20011920    00000098     httpclient_release.a : httpclient.oem4 (.text:resHeaderNameToHash)
                  200119b8    00000096     rtsv7M4_T_le_eabi.lib : ull_div_t2.asm.obj (.text)
                  20011a4e    00000002     --HOLE-- [fill = 0]
                  20011a50    00000094     simplelink.a : cc_pal.obj (.text:Semaphore_pend_handle)
                  20011ae4    00000094     drivers_cc32xx.aem4 : SPICC32XXDMA.oem4 (.text:initHw)
                  20011b78    00000094     httpclient_release.a : httpclient.oem4 (.text:locationParser)
                  20011c0c    00000004     dpl_cc32xx.aem4 : HwiP_tirtos.oem4 (.text:HwiP_disableInterrupt)
                  20011c10    00000094     sysbios.aem4 : BIOS.obj (.text:ti_sysbios_knl_Task_exit__E)
                  20011ca4    00000092     slnetsock_release.a : slnetsock.oem4 (.text:SlNetSock_create)
                  20011d36    00000002     --HOLE-- [fill = 0]
                  20011d38    00000090     drivers_cc32xx.aem4 : CaptureCC32XX.oem4 (.text:CaptureCC32XX_hwiIntFunction)
                  20011dc8    00000090     slnetsock_release.a : slnetsock.oem4 (.text:SlNetSock_getVirtualSdConf)
                  20011e58    00000090     simplelink.a : device.obj (.text:_SlDeviceHandleAsync_Stop)
                  20011ee8    00000090                  : sl_socket.obj (.text:_SlSocketHandleAsync_Accept)
                  20011f78    00000090     drivers_cc32xx.aem4 : PowerCC32XX.oem4 (.text:restoreNVICRegs)
                  20012008    00000090     sysbios.aem4 : BIOS.obj (.text:ti_sysbios_knl_Task_Module_startup__E)
                  20012098    0000008c     simplelink.a : driver.obj (.text:_SlDrvDriverIsApiAllowed)
                  20012124    0000008c     rtsv7M4_T_le_eabi.lib : fputc.c.obj (.text:fputc)
                  200121b0    0000008c     simplelink.a : sl_socket.obj (.text:sl_Recv)
                  2001223c    00000004     dpl_cc32xx.aem4 : HwiP_tirtos.oem4 (.text:HwiP_enableInterrupt)
                  20012240    0000008c     sysbios.aem4 : BIOS.obj (.text:xdc_runtime_Memory_alloc__E)
                  200122cc    00000088     drivers_cc32xx.aem4 : PWMTimerCC32XX.oem4 (.text:PWMTimerCC32XX_close)
                  20012354    00000088     driverlib.a : pin.obj (.text:PinConfigSet)
                  200123dc    00000088     drivers_cc32xx.aem4 : TimerCC32XX.oem4 (.text:TimerCC32XX_setPeriod)
                  20012464    00000088     simplelink.a : driver.obj (.text:_SlDrvProtectAsyncRespSetting)
                  200124ec    00000088     httpclient_release.a : httpclient.oem4 (.text:createSecAttribs)
                  20012574    00000088     PEMS.obj (.text:down_arrows)
                  200125fc    00000088     httpclient_release.a : httpclient.oem4 (.text:readLine)
                  20012684    00000088     simplelink.a : eventreg.obj (.text:sl_UnregisterLibsEventHandler)
                  2001270c    00000004     drivers_cc32xx.aem4 : SPICC32XXDMA.oem4 (.text:SPICC32XXDMA_init)
                  20012710    00000088     sysbios.aem4 : BIOS.obj (.text:ti_sysbios_family_arm_m3_Hwi_initNVIC__E)
                  20012798    00000088     PEMS.obj (.text:up_arrows)
                  20012820    00000086     rtsv7M4_T_le_eabi.lib : fd_cmp_t2.asm.obj (.text:__aeabi_cdcmple)
                  200128a6    00000086                           : fd_cmp_t2.asm.obj (.text:__aeabi_cdrcmple)
                  2001292c    00000004     dpl_cc32xx.aem4 : SemaphoreP_tirtos.oem4 (.text:SemaphoreP_post)
                  20012930    00000086     sysbios.aem4 : BIOS.obj (.text:xdc_runtime_Core_constructObject__I)
                  200129b6    00000002     --HOLE-- [fill = 0]
                  200129b8    00000084     drivers_cc32xx.aem4 : PowerCC32XX.oem4 (.text:Power_init)
                  20012a3c    00000084     slnetifwifi.a : slnetifwifi.obj (.text:SlNetIfWifi_sockstartSec)
                  20012ac0    00000084     slnetsock_release.a : slnetutils.oem4 (.text:SlNetUtil_getHostByName)
                  20012b44    00000084     lcd.obj (.text:lcd_byte)
                  20012bc8    00000084     drivers_cc32xx.aem4 : PowerCC32XX.oem4 (.text:saveNVICRegs)
                  20012c4c    00000084     simplelink.a : sl_socket.obj (.text:sl_SetSockOpt)
                  20012cd0    00000084     sysbios.aem4 : BIOS.obj (.text:ti_sysbios_family_arm_m3_Hwi_postInit__I)
                  20012d54    00000004     slnetsock_release.a : slnetif.oem4 (.text:SlNetIf_init)
                  20012d58    00000084     sysbios.aem4 : BIOS.obj (.text:ti_sysbios_heaps_HeapMem_free__E)
                  20012ddc    00000080     drivers_cc32xx.aem4 : PowerCC32XX.oem4 (.text:Power_setDependency)
                  20012e5c    00000004     slnetsock_release.a : slnetutils.oem4 (.text:SlNetUtil_init)
                  20012e60    00000080     sysbios.aem4 : BIOS.obj (.text:ti_sysbios_knl_Clock_workFunc__E)
                  20012ee0    00000080     IRBlaster.obj (.text:turn_AC_OFF)
                  20012f60    00000080     IRBlaster.obj (.text:turn_AC_ON)
                  20012fe0    0000007c     drivers_cc32xx.aem4 : CaptureCC32XX.oem4 (.text:CaptureCC32XX_start)
                  2001305c    0000007c     platform.obj (.text:Connect)
                  200130d8    0000007c     drivers_cc32xx.aem4 : UDMACC32XX.oem4 (.text:UDMACC32XX_open)
                  20013154    00000004     rtsv7M4_T_le_eabi.lib : printf.c.obj (.text:_outc)
                  20013158    0000007c     sysbios.aem4 : BIOS.obj (.text:_pthread_abstime2ticks)
                  200131d4    0000007c     drivers_cc32xx.aem4 : UARTCC32XX.oem4 (.text:readIsrBinaryBlocking)
                  20013250    0000007a     rtsv7M4_T_le_eabi.lib : memset_t2.asm.obj (.text)
                  200132ca    00000002     --HOLE-- [fill = 0]
                  200132cc    00000078     drivers_cc32xx.aem4 : GPIOCC32XX.oem4 (.text:GPIO_hwiIntFxn)
                  20013344    00000078                         : TimerCC32XX.oem4 (.text:TimerCC32XX_start)
                  200133bc    00000078                         : CaptureCC32XX.oem4 (.text:initHw)
                  20013434    00000078                         : UARTCC32XX.oem4 (.text:readIsrBinaryCallback)
                  200134ac    00000078     simplelink.a : sl_socket.obj (.text:sl_Socket)
                  20013524    00000074     slnetsock_release.a : slnetsock.oem4 (.text:SlNetSock_AllocVirtualSocket)
                  20013598    00000074     drivers_cc32xx.aem4 : UARTCC32XX.oem4 (.text:UARTCC32XX_hwiIntFxn)
                  2001360c    00000074     rtsv7M4_T_le_eabi.lib : fclose.c.obj (.text:__TI_closefile)
                  20013680    00000074     sysbios.aem4 : BIOS.obj (.text:xdc_runtime_Core_deleteObject__I)
                  200136f4    00000070     httpclient_release.a : httpclient.oem4 (.text:HTTPClient_disconnect)
                  20013764    00000070     simplelink.a : driver.obj (.text:_SlDrvCmdSend_noLock)
                  200137d4    00000004     rtsv7M4_T_le_eabi.lib : printf.c.obj (.text:_outs)
                  200137d8    00000070     sysbios.aem4 : BIOS.obj (.text:acquireMutexNone$45)
                  20013848    00000070                  : BIOS.obj (.text:ti_sysbios_heaps_HeapMem_initPrimary__I)
                  200138b8    0000006e     rtsv7M4_T_le_eabi.lib : _printfi.c.obj (.text:_mcpy)
                  20013926    00000002     --HOLE-- [fill = 0]
                  20013928    0000006c     drivers_cc32xx.aem4 : CaptureCC32XX.oem4 (.text:CaptureCC32XX_close)
                  20013994    0000006c     rtsv7M4_T_le_eabi.lib : hostrename.c.obj (.text:HOSTrename)
                  20013a00    0000006c     httpclient_release.a : httpclient.oem4 (.text:HTTPClient_getHeader)
                  20013a6c    0000006c     slnetsock_release.a : slnetutils.oem4 (.text:SlNetUtil_str2BinIpV4)
                  20013ad8    0000006c     simplelink.a : device.obj (.text:_SlDeviceHandleResetRequestInternally)
                  20013b44    0000006c                  : sl_socket.obj (.text:_SlDrvOpenCtrlSocket)
                  20013bb0    0000006c                  : netapp.obj (.text:_SlNetAppSendTokenValue)
                  20013c1c    0000006c     PEMS.obj (.text:cursor_moveto)
                  20013c88    0000006c     sysbios.aem4 : BIOS.obj (.text:ti_sysbios_knl_Swi_restoreHwi__E)
                  20013cf4    00000068     rtsv7M4_T_le_eabi.lib : hostlseek.c.obj (.text:HOSTlseek)
                  20013d5c    00000068     drivers_cc32xx.aem4 : PWMTimerCC32XX.oem4 (.text:PWMTimerCC32XX_start)
                  20013dc4    00000068     simplelink.a : driver.obj (.text:_SlSpawnMsgListGetCount)
                  20013e2c    00000068     rtsv7M4_T_le_eabi.lib : copy_decompress_lzss.c.obj (.text:decompress:lzss:__TI_decompress_lzss)
                  20013e94    00000068                           : printf.c.obj (.text:printf)
                  20013efc    00000004     release_pem4.oem4 (.text:ti_sysbios_BIOS_RtsGateProxy_enter__E)
                  20013f00    00000068     sysbios.aem4 : BIOS.obj (.text:pthread_exit)
                  20013f68    00000068     simplelink.a : cc_pal.obj (.text:spi_Open)
                  20013fd0    00000066     drivers_cc32xx.aem4 : UARTCC32XX.oem4 (.text:UARTCC32XX_writeCancel)
                  20014036    00000002     --HOLE-- [fill = 0]
                  20014038    00000064                         : PowerCC32XX.oem4 (.text:PowerCC32XX_setParkState)
                  2001409c    00000064     rtsv7M4_T_le_eabi.lib : fseek.c.obj (.text:fseek)
                  20014100    00000064     main_tirtos.obj (.text:main)
                  20014164    00000004     release_pem4.oem4 (.text:ti_sysbios_BIOS_RtsGateProxy_leave__E)
                  20014168    00000064     sysbios.aem4 : BIOS.obj (.text:ti_sysbios_family_arm_m3_Hwi_dispatchC__I)
                  200141cc    00000062     drivers_cc32xx.aem4 : UARTCC32XX.oem4 (.text:UARTCC32XX_writePolling)
                  2001422e    00000062     rtsv7M4_T_le_eabi.lib : _io_perm.c.obj (.text:__TI_wrt_ok)
                  20014290    00000060                           : hostopen.c.obj (.text:HOSTopen)
                  200142f0    00000060     driverlib.a : prcm.obj (.text:PRCMSysResetCauseGet)
                  20014350    00000060     sysbios.aem4 : BIOS.obj (.text:ti_sysbios_knl_Semaphore_post__E)
                  200143b0    00000060                  : BIOS.obj (.text:ti_sysbios_knl_Swi_run__I)
                  20014410    0000005e     slnetifwifi.a : slnetifwifi.obj (.text:SlNetIfWifi_setSockOpt)
                  2001446e    00000002     --HOLE-- [fill = 0]
                  20014470    0000005c     drivers_cc32xx.aem4 : CaptureCC32XX.oem4 (.text:CaptureCC32XX_stop)
                  200144cc    0000005c                         : GPIOCC32XX.oem4 (.text:GPIO_setCallback)
                  20014528    0000005c     simplelink.a : spawn.obj (.text:_SlInternalSpawn)
                  20014584    0000005c     rtsv7M4_T_le_eabi.lib : close.c.obj (.text:close)
                  200145e0    0000005c                           : s_frexp.c.obj (.text:frexp)
                  2001463c    0000005c     httpclient_release.a : httpclient.oem4 (.text:readRawResponseBody)
                  20014698    0000005c     sysbios.aem4 : BIOS.obj (.text:ti_sysbios_family_arm_m3_Timer_start__E)
                  200146f4    00000004     release_pem4.oem4 (.text:ti_sysbios_family_arm_m3_Hwi_delete)
                  200146f8    0000005c     sysbios.aem4 : BIOS.obj (.text:ti_sysbios_knl_Swi_schedule__I)
                  20014754    00000004     release_pem4.oem4 (.text:ti_sysbios_family_arm_m3_TaskSupport_Module__startupDone__S)
                  20014758    0000005c     sysbios.aem4 : BIOS.obj (.text:ti_sysbios_knl_Task_startCore__E)
                  200147b4    00000004     release_pem4.oem4 (.text:ti_sysbios_heaps_HeapMem_Module_GateProxy_enter__E)
                  200147b8    0000005c     sysbios.aem4 : BIOS.obj (.text:xdc_runtime_Startup_exec__E)
                  20014814    00000058     drivers_cc32xx.aem4 : GPIOCC32XX.oem4 (.text:GPIO_write)
                  2001486c    00000058     rtsv7M4_T_le_eabi.lib : hostread.c.obj (.text:HOSTread)
                  200148c4    00000058                           : hostwrite.c.obj (.text:HOSTwrite)
                  2001491c    00000058     driverlib.a : prcm.obj (.text:PRCMPeripheralReset)
                  20014974    00000058     drivers_cc32xx.aem4 : PowerCC32XX.oem4 (.text:Power_releaseDependency)
                  200149cc    00000058     slnetsock_release.a : slnetsock.oem4 (.text:SlNetSock_recv)
                  20014a24    00000058                         : slnetsock.oem4 (.text:SlNetSock_send)
                  20014a7c    00000058     simplelink.a : sl_socket.obj (.text:_SlDrvClearCtrlSocket)
                  20014ad4    00000004     release_pem4.oem4 (.text:ti_sysbios_heaps_HeapMem_Module_GateProxy_leave__E)
                  20014ad8    00000058     sysbios.aem4 : BIOS.obj (.text:pthread_mutex_init)
                  20014b30    00000058     simplelink.a : sl_socket.obj (.text:sl_Listen)
                  20014b88    00000058                  : eventreg.obj (.text:sl_RegisterLibsEventHandler)
                  20014be0    00000058     sysbios.aem4 : BIOS.obj (.text:ti_sysbios_family_arm_cc32xx_Seconds_getCount__I)
                  20014c38    00000056     drivers_cc32xx.aem4 : TimerCC32XX.oem4 (.text:TimerCC32XX_stop)
                  20014c8e    00000056     rtsv7M4_T_le_eabi.lib : _printfi.c.obj (.text:_pconv_f)
                  20014ce4    00000054     simplelink.a : driver.obj (.text:_SlDrvRxIrqHandler)
                  20014d38    00000054     rtsv7M4_T_le_eabi.lib : ltoa.c.obj (.text:ltoa)
                  20014d8c    00000054     drivers_cc32xx.aem4 : UARTCC32XX.oem4 (.text:ringBufGet)
                  20014de0    00000054     sysbios.aem4 : BIOS.obj (.text:ti_sysbios_family_arm_cc32xx_Seconds_getTime__E)
                  20014e34    00000054     release_pem4.oem4 (.text:ti_sysbios_family_arm_m3_Hwi_create)
                  20014e88    00000054     sysbios.aem4 : BIOS.obj (.text:ti_sysbios_family_arm_m3_Timer_setPeriod__E)
                  20014edc    00000052     drivers_cc32xx.aem4 : PowerCC32XX_asm.oem4 (.text:PowerCC32XX_resumeLPDS)
                  20014f2e    00000052     rtsv7M4_T_le_eabi.lib : _printfi.c.obj (.text:_ecpy)
                  20014f80    00000052     drivers_cc32xx.aem4 : TimerCC32XX.oem4 (.text:initHw)
                  20014fd2    00000002     --HOLE-- [fill = 0]
                  20014fd4    00000050     dpl_cc32xx.aem4 : ClockP_tirtos.oem4 (.text:ClockP_create)
                  20015024    00000050     simplelink.a : cc_pal.obj (.text:NwpRegisterInterruptHandler)
                  20015074    00000050     slnetsock_release.a : slnetif.oem4 (.text:SlNetIf_queryIf)
                  200150c4    00000050     drivers_cc32xx.aem4 : TimerCC32XX.oem4 (.text:TimerCC32XX_allocateTimerResource)
                  20015114    00000050     simplelink.a : sl_socket.obj (.text:_SlDrvCloseCtrlSocket)
                  20015164    00000050                  : driver.obj (.text:_SlDrvCmdSend_noWait)
                  200151b4    00000050                  : driver.obj (.text:_SlDrvUpdateApiInProgress)
                  20015204    00000050                  : spawn.obj (.text:_SlInternalSpawnTaskEntry)
                  20015254    00000050                  : eventreg.obj (.text:_SlNetAppHttpServerHdlr)
                  200152a4    00000050                  : eventreg.obj (.text:_SlNetAppRequestHdlr)
                  200152f4    00000050     httpclient_release.a : httpclient.oem4 (.text:removeRequestHeader)
                  20015344    00000004     release_pem4.oem4 (.text:ti_sysbios_knl_Clock_TimerProxy_getMaxTicks__E)
                  20015348    00000050     sysbios.aem4 : BIOS.obj (.text:ti_sysbios_family_arm_m3_Hwi_Module_startup__E)
                  20015398    00000050                  : BIOS.obj (.text:ti_sysbios_knl_Clock_Instance_init__E)
                  200153e8    00000050     release_pem4.oem4 (.text:ti_sysbios_knl_Task_create)
                  20015438    0000004c     drivers_cc32xx.aem4 : GPIOCC32XX.oem4 (.text:GPIO_enableInt)
                  20015484    0000004c     simplelink.a : cc_pal.obj (.text:NwpWaitForShutDownInd)
                  200154d0    0000004c     drivers_cc32xx.aem4 : PowerCC32XX.oem4 (.text:PowerCC32XX_parkPin)
                  2001551c    0000004c     slnetifwifi.a : slnetifwifi.obj (.text:SlNetIfWifi_getConnectionStatus)
                  20015568    0000004c     slnetsock_release.a : slnetsock.oem4 (.text:SlNetSock_freeVirtualSocket)
                  200155b4    0000004c                         : slnetsock.oem4 (.text:SlNetSock_startSec)
                  20015600    0000004c     rtsv7M4_T_le_eabi.lib : fflush.c.obj (.text:__TI_doflush)
                  2001564c    0000004c                           : atoi.c.obj (.text:atoi)
                  20015698    0000004c                           : cpy_tbl.c.obj (.text:copy_in)
                  200156e4    0000004c     drivers_cc32xx.aem4 : PWMTimerCC32XX.oem4 (.text:getDutyCounts)
                  20015730    0000004c                         : PWMTimerCC32XX.oem4 (.text:getPeriodCounts)
                  2001577c    0000004c     dht22.obj (.text:initCapture)
                  200157c8    0000004c     MHZ16.obj (.text:readMHZ16)
                  20015814    0000004c     drivers_cc32xx.aem4 : PowerCC32XX.oem4 (.text:restorePeriphClocks)
                  20015860    0000004c     simplelink.a : wlan.obj (.text:sl_WlanSetMode)
                  200158ac    0000004c     sysbios.aem4 : m3_TaskSupport_asm.obj (.text:ti_sysbios_family_arm_m3_TaskSupport_buildTaskStack)
                  200158f8    0000004c                  : BIOS.obj (.text:ti_sysbios_heaps_HeapMem_getStats__E)
                  20015944    00000004     release_pem4.oem4 (.text:ti_sysbios_knl_Clock_TimerProxy_setPeriodMicroSecs__E)
                  20015948    0000004c     sysbios.aem4 : BIOS.obj (.text:ti_sysbios_knl_Swi_runLoop__I)
                  20015994    00000004     release_pem4.oem4 (.text:ti_sysbios_knl_Clock_TimerProxy_start__E)
                  20015998    0000004c     sysbios.aem4 : BIOS.obj (.text:ti_sysbios_knl_Task_allBlockedFunction__I)
                  200159e4    00000004     release_pem4.oem4 (.text:ti_sysbios_knl_Clock_TimerProxy_stop__E)
                  200159e8    0000004c     sysbios.aem4 : BIOS.obj (.text:ti_sysbios_knl_Task_schedule__I)
                  20015a34    00000048     driverlib.a : flash.obj (.text:FlashDisable)
                  20015a7c    00000048                 : prcm.obj (.text:PRCMLPDSEnter)
                  20015ac4    00000048                 : prcm.obj (.text:PRCMPeripheralClkEnable)
                  20015b0c    00000048     drivers_cc32xx.aem4 : PowerCC32XX.oem4 (.text:Power_releaseConstraint)
                  20015b54    00000048     slnetsock_release.a : slnetsock.oem4 (.text:SlNetSock_connect)
                  20015b9c    00000048                         : slnetsock.oem4 (.text:SlNetSock_init)
                  20015be4    00000048     simplelink.a : eventreg.obj (.text:_SlDeviceFatalErrorEvtHdlr)
                  20015c2c    00000048                  : eventreg.obj (.text:_SlDeviceGeneralEvtHdlr)
                  20015c74    00000048                  : driver.obj (.text:_SlDrvSyncObjWaitTimeout)
                  20015cbc    00000048                  : eventreg.obj (.text:_SlNetAppEvtHdlr)
                  20015d04    00000048                  : eventreg.obj (.text:_SlNetAppRequestMemFree)
                  20015d4c    00000048                  : eventreg.obj (.text:_SlSockEvtHdlr)
                  20015d94    00000048                  : eventreg.obj (.text:_SlWlanEvtHdlr)
                  20015ddc    00000048     dht22.obj (.text:capture)
                  20015e24    00000048     rtsv7M4_T_le_eabi.lib : fd_toi_t2.asm.obj (.text)
                  20015e6c    00000004     release_pem4.oem4 (.text:ti_sysbios_knl_Clock_delete)
                  20015e70    00000048     sysbios.aem4 : BIOS.obj (.text:ti_sysbios_family_arm_m3_Hwi_disableInterrupt__E)
                  20015eb8    00000048                  : BIOS.obj (.text:ti_sysbios_family_arm_m3_Hwi_enableInterrupt__E)
                  20015f00    00000048                  : m3_Hwi_asm_switch.obj (.text:ti_sysbios_family_arm_m3_Hwi_initStacks__E)
                  20015f48    00000048                  : BIOS.obj (.text:ti_sysbios_family_arm_m3_Timer_initDevice__I)
                  20015f90    00000048                  : BIOS.obj (.text:ti_sysbios_knl_Mailbox_Module_startup__E)
                  20015fd8    00000048                  : BIOS.obj (.text:xdc_runtime_Core_assignParams__I)
                  20016020    00000046     drivers_cc32xx.aem4 : RingBuf.oem4 (.text:RingBuf_put)
                  20016066    00000046                         : TimerCC32XX.oem4 (.text:getPrescaler)
                  200160ac    00000044                         : Capture.oem4 (.text:Capture_init)
                  200160f0    00000044     rtsv7M4_T_le_eabi.lib : hostclose.c.obj (.text:HOSTclose)
                  20016134    00000044                           : hostunlink.c.obj (.text:HOSTunlink)
                  20016178    00000044     httpclient_release.a : httpclient.oem4 (.text:HTTPClient_create)
                  200161bc    00000044     driverlib.a : prcm.obj (.text:PRCMLPDSRestoreInfoSet)
                  20016200    00000044     drivers_cc32xx.aem4 : PWM.oem4 (.text:PWM_init)
                  20016244    00000044                         : PowerCC32XX_asm.oem4 (.text:PowerCC32XX_enterLPDS)
                  20016288    00000044                         : SPI.oem4 (.text:SPI_init)
                  200162cc    00000044     slnetsock_release.a : slnetutils.oem4 (.text:SlNetUtil_strTok)
                  20016310    00000044     drivers_cc32xx.aem4 : Timer.oem4 (.text:Timer_init)
                  20016354    00000044                         : UART.oem4 (.text:UART_init)
                  20016398    00000044     IRBlaster.obj (.text:UNO)
                  200163dc    00000044     boot.aem4 : boot.oem4 (.text)
                  20016420    00000044     rtsv7M4_T_le_eabi.lib : getdevice.c.obj (.text:getdevice)
                  20016464    00000044                           : fd_tou_t2.asm.obj (.text)
                  200164a8    00000044     sysbios.aem4 : BIOS.obj (.text:ti_sysbios_family_arm_m3_Hwi_getStackInfo__E)
                  200164ec    00000004     release_pem4.oem4 (.text:ti_sysbios_knl_Semaphore_delete)
                  200164f0    00000044     sysbios.aem4 : BIOS.obj (.text:ti_sysbios_knl_Mailbox_postInit__I)
                  20016534    00000004     release_pem4.oem4 (.text:ti_sysbios_knl_Task_delete)
                  20016538    00000044     sysbios.aem4 : BIOS.obj (.text:ti_sysbios_knl_Swi_post__E)
                  2001657c    00000004     release_pem4.oem4 (.text:xdc_runtime_System_Module_GateProxy_enter__E)
                  20016580    00000044     sysbios.aem4 : BIOS.obj (.text:xdc_runtime_System_atexit__E)
                  200165c4    00000042     httpclient_release.a : httpclient.oem4 (.text:initializeCB)
                  20016606    00000002     --HOLE-- [fill = 0]
                  20016608    00000040     drivers_cc32xx.aem4 : Capture.oem4 (.text:Capture_open)
                  20016648    00000040     simplelink.a : sl_socket.obj (.text:CountSetBits)
                  20016688    00000040     dpl_cc32xx.aem4 : HwiP_tirtos.oem4 (.text:HwiP_create)
                  200166c8    00000040     drivers_cc32xx.aem4 : PWM.oem4 (.text:PWM_open)
                  20016708    00000040     driverlib.a : pin.obj (.text:PinModeSet)
                  20016748    00000040     drivers_cc32xx.aem4 : RingBuf.oem4 (.text:RingBuf_get)
                  20016788    00000040                         : SPI.oem4 (.text:SPI_open)
                  200167c8    00000040     slnetsock_release.a : slnetsock.oem4 (.text:SlNetSock_secAttribSet)
                  20016808    00000040     drivers_cc32xx.aem4 : Timer.oem4 (.text:Timer_open)
                  20016848    00000040                         : UARTCC32XX.oem4 (.text:UARTCC32XX_read)
                  20016888    00000040                         : UART.oem4 (.text:UART_open)
                  200168c8    00000040                         : UDMACC32XX.oem4 (.text:UDMACC32XX_init)
                  20016908    00000040     simplelink.a : driver.obj (.text:_SlDrvGlobalObjUnLock)
                  20016948    00000040                  : driver.obj (.text:_SlFindAndReleasePendingCmd)
                  20016988    00000040                  : spawn.obj (.text:_SlInternalSpawnWaitForEvent)
                  200169c8    00000040                  : eventreg.obj (.text:_SlIsEventRegistered)
                  20016a08    00000040     httpclient_release.a : httpclient.oem4 (.text:clearReqHeaders)
                  20016a48    00000040     rtsv7M4_T_le_eabi.lib : sprintf.c.obj (.text:sprintf)
                  20016a88    00000040     sysbios.aem4 : BIOS.obj (.text:ti_sysbios_heaps_HeapMem_Instance_init__E)
                  20016ac8    00000040     rtsv7M4_T_le_eabi.lib : vsnprintf.c.obj (.text:vsnprintf)
                  20016b08    0000003e     slnetsock_release.a : slnetsock.oem4 (.text:SlNetSock_close)
                  20016b46    0000003e     simplelink.a : sl_socket.obj (.text:_SlSocketBuildAddress)
                  20016b84    0000003e     rtsv7M4_T_le_eabi.lib : _printfi.c.obj (.text:_fcpy)
                  20016bc2    00000006     drivers_cc32xx.aem4 : CaptureCC32XX.oem4 (.text:CaptureCC32XX_control)
                  20016bc8    0000003e     sysbios.aem4 : BIOS.obj (.text:sem_timedwait)
                  20016c06    00000002     --HOLE-- [fill = 0]
                  20016c08    0000003c     drivers_cc32xx.aem4 : PowerCC32XX.oem4 (.text:Power_setConstraint)
                  20016c44    0000003c     dpl_cc32xx.aem4 : SemaphoreP_tirtos.oem4 (.text:SemaphoreP_create)
                  20016c80    0000003c     simplelink.a : netapp.obj (.text:_SlNetAppCopyPingResultsToReport)
                  20016cbc    00000004     release_pem4.oem4 (.text:xdc_runtime_System_Module_GateProxy_leave__E)
                  20016cc0    0000003c     sysbios.aem4 : BIOS.obj (.text:pthread_mutex_unlock)
                  20016cfc    00000004     --HOLE-- [fill = 0]
                  20016d00    0000003c                  : BIOS.obj (.text:sleep)
                  20016d3c    00000004     --HOLE-- [fill = 0]
                  20016d40    0000003c                  : BIOS.obj (.text:ti_sysbios_family_arm_m3_Hwi_Instance_finalize__E)
                  20016d7c    00000004     --HOLE-- [fill = 0]
                  20016d80    0000003c                  : BIOS.obj (.text:ti_sysbios_family_arm_m3_Timer_setPeriodMicroSecs__E)
                  20016dbc    0000003c     release_pem4.oem4 (.text:ti_sysbios_knl_Clock_create)
                  20016df8    0000003c     sysbios.aem4 : BIOS.obj (.text:ti_sysbios_knl_Clock_walkQueuePeriodic__E)
                  20016e34    00000004     --HOLE-- [fill = 0]
                  20016e38    0000003c                  : BIOS.obj (.text:ti_sysbios_knl_Swi_restore__E)
                  20016e74    0000003c     simplelink.a : sl_socket.obj (.text:to_mSec)
                  20016eb0    0000003c     sysbios.aem4 : BIOS.obj (.text:usleep)
                  20016eec    00000004     --HOLE-- [fill = 0]
                  20016ef0    0000003c                  : BIOS.obj (.text:xdc_runtime_System_processAtExit__E)
                  20016f2c    0000003a     slnetifwifi.a : slnetifwifi.obj (.text:SlNetIfWifi_getIPAddr)
                  20016f66    0000003a     drivers_cc32xx.aem4 : TimerCC32XX.oem4 (.text:TimerCC32XX_close)
                  20016fa0    0000003a     httpclient_release.a : httpclient.oem4 (.text:clearResponseValues)
                  20016fda    0000003a     dpl_cc32xx.aem4 : PowerCC32XX_tirtos.oem4 (.text:getCountsRTC)
                  20017014    0000003a     drivers_cc32xx.aem4 : CaptureCC32XX.oem4 (.text:getPowerMgrId)
                  2001704e    0000003a                         : PWMTimerCC32XX.oem4 (.text:getPowerMgrId)
                  20017088    0000003a     httpclient_release.a : httpclient.oem4 (.text:stringncasecmp)
                  200170c2    00000002     --HOLE-- [fill = 0]
                  200170c4    00000038     drivers_cc32xx.aem4 : GPIOCC32XX.oem4 (.text:GPIO_read)
                  200170fc    00000038     driverlib.a : prcm.obj (.text:PRCMLPDSEnterKeepDebugIf)
                  20017134    00000038     slnetifwifi.a : slnetifwifi.obj (.text:SlNetIfWifi_recvFrom)
                  2001716c    00000038                   : slnetifwifi.obj (.text:SlNetIfWifi_sendTo)
                  200171a4    00000038                   : slnetifwifi.obj (.text:SlNetIfWifi_socket)
                  200171dc    00000038     slnetsock_release.a : slnetif.oem4 (.text:SlNetIf_configCheck)
                  20017214    00000038                         : slnetutils.oem4 (.text:SlNetUtil_htonl)
                  2001724c    00000038     rtsv7M4_T_le_eabi.lib : trgmsg.c.obj (.text:__TI_writemsg)
                  20017284    00000038     drivers_cc32xx.aem4 : PowerCC32XX.oem4 (.text:notify)
                  200172bc    00000038     platform.obj (.text:printError)
                  200172f4    00000038     httpclient_release.a : httpclient.oem4 (.text:stringcasecmp)
                  2001732c    00000004     --HOLE-- [fill = 0]
                  20017330    00000038     sysbios.aem4 : BIOS.obj (.text:ti_sysbios_knl_Task_processVitalTaskFlag__I)
                  20017368    00000036     slnetifwifi.a : slnetifwifi.obj (.text:SlNetIfWifi_getHostByName)
                  2001739e    00000036                   : slnetifwifi.obj (.text:SlNetIfWifi_select)
                  200173d4    00000036     drivers_cc32xx.aem4 : TimerCC32XX.oem4 (.text:TimerCC32XX_hwiIntFunction)
                  2001740a    00000036     driverlib.a : timer.obj (.text:TimerControlStall)
                  20017440    00000036     drivers_cc32xx.aem4 : UARTCC32XX.oem4 (.text:UARTCC32XX_readCancel)
                  20017476    00000036     rtsv7M4_T_le_eabi.lib : strncpy.c.obj (.text:strncpy)
                  200174ac    00000034     IRBlaster.obj (.text:COMENZAR)
                  200174e0    00000034     dht22.obj (.text:CtoF)
                  20017514    00000034     driverlib.a : pin.obj (.text:PinModeGet)
                  20017548    00000034     drivers_cc32xx.aem4 : PowerCC32XX.oem4 (.text:PowerCC32XX_restoreParkState)
                  2001757c    00000034     slnetsock_release.a : slnetutils.oem4 (.text:SlNetUtil_htons)
                  200175b0    00000034     drivers_cc32xx.aem4 : TimerCC32XX.oem4 (.text:TimerCC32XX_freeTimerResource)
                  200175e4    00000034                         : UDMACC32XX.oem4 (.text:UDMACC32XX_close)
                  20017618    00000034     IRBlaster.obj (.text:ZERO)
                  2001764c    00000034     rtsv7M4_T_le_eabi.lib : fopen.c.obj (.text:__TI_cleanup)
                  20017680    00000034                           : trgmsg.c.obj (.text:__TI_readmsg)
                  200176b4    00000004     --HOLE-- [fill = 0]
                  200176b8    00000034     sysbios.aem4 : BIOS.obj (.text:_pthread_delete$41)
                  200176ec    00000034     drivers_cc32xx.aem4 : TimerCC32XX.oem4 (.text:getPowerMgrId)
                  20017720    00000034     rtsv7M4_T_le_eabi.lib : strstr.c.obj (.text:strstr)
                  20017754    00000004     --HOLE-- [fill = 0]
                  20017758    00000034     sysbios.aem4 : BIOS.obj (.text:ti_sysbios_family_arm_m3_Timer_periodicStub__I)
                  2001778c    00000034     release_pem4.oem4 (.text:ti_sysbios_knl_Semaphore_create)
                  200177c0    00000032     sysbios.aem4 : BIOS.obj (.text:ti_sysbios_hal_Hwi_initStack)
                  200177f2    00000030     drivers_cc32xx.aem4 : PowerCC32XX.oem4 (.text:PowerCC32XX_restoreParkedPin)
                  20017822    00000002     --HOLE-- [fill = 0]
                  20017824    00000030     driverlib.a : timer.obj (.text:TimerControlEvent)
                  20017854    00000030     simplelink.a : fs.obj (.text:_SlFsStrlen)
                  20017884    00000030     rtsv7M4_T_le_eabi.lib : vsnprintf.c.obj (.text:_outs)
                  200178b4    00000030                           : getdevice.c.obj (.text:finddevice)
                  200178e4    00000030     release_pem4.oem4 (.text:ti_sysbios_BIOS_atExitFunc__I)
                  20017914    00000030     release_pem4.oem4 (.text:ti_sysbios_BIOS_startFunc__I)
                  20017944    00000004     --HOLE-- [fill = 0]
                  20017948    00000030     sysbios.aem4 : BIOS.obj (.text:ti_sysbios_family_arm_m3_TaskSupport_start__E)
                  20017978    00000030     release_pem4.oem4 (.text:ti_sysbios_gates_GateHwi_Object__create__S)
                  200179a8    00000030     release_pem4.oem4 (.text:ti_sysbios_gates_GateMutex_Object__create__S)
                  200179d8    00000030     sysbios.aem4 : BIOS.obj (.text:ti_sysbios_gates_GateMutex_enter__E)
                  20017a08    00000030     release_pem4.oem4 (.text:ti_sysbios_heaps_HeapMem_Object__create__S)
                  20017a38    00000030     release_pem4.oem4 (.text:ti_sysbios_knl_Semaphore_construct)
                  20017a68    00000030     sysbios.aem4 : BIOS.obj (.text:ti_sysbios_knl_Semaphore_pendTimeout__I)
                  20017a98    00000030                  : BIOS.obj (.text:ti_sysbios_knl_Task_restore__E)
                  20017ac8    00000030                  : BIOS.obj (.text:ti_sysbios_knl_Task_unblockI__E)
                  20017af8    0000002e     simplelink.a : cc_pal.obj (.text:Mutex_create_handle)
                  20017b26    0000002e     rtsv7M4_T_le_eabi.lib : i_tofd_t2.asm.obj (.text)
                  20017b54    0000002e     release_pem4.oem4 (.text:ti_sysbios_rts_MemAlloc_alloc)
                  20017b82    0000002c     httpclient_release.a : httpclient.oem4 (.text:HTTPClient_destroy)
                  20017bae    00000002     --HOLE-- [fill = 0]
                  20017bb0    0000002c     simplelink.a : cc_pal.obj (.text:NwpPowerOn)
                  20017bdc    0000002c     drivers_cc32xx.aem4 : PowerCC32XX.oem4 (.text:PowerCC32XX_getParkState)
                  20017c08    0000002c     dpl_cc32xx.aem4 : SemaphoreP_tirtos.oem4 (.text:SemaphoreP_createBinary)
                  20017c34    0000002c     slnetifwifi.a : slnetifwifi.obj (.text:SlNetIfWifi_recv)
                  20017c60    0000002c                   : slnetifwifi.obj (.text:SlNetIfWifi_send)
                  20017c8c    0000002c     simplelink.a : driver.obj (.text:_SlDrvSyncObjWaitForever)
                  20017cb8    0000002c     sysbios.aem4 : BIOS.obj (.text:_pthread_cleanupFxn)
                  20017ce4    00000004     --HOLE-- [fill = 0]
                  20017ce8    0000002c                  : BIOS.obj (.text:clockFxn$39)
                  20017d14    00000004     --HOLE-- [fill = 0]
                  20017d18    0000002c                  : BIOS.obj (.text:getTime$20)
                  20017d44    0000002c     lcd.obj (.text:lcd_character)
                  20017d70    0000002c     lcd.obj (.text:lcd_command)
                  20017d9c    0000002c     lcd.obj (.text:lcd_string)
                  20017dc8    0000002c     rtsv7M4_T_le_eabi.lib : strncmp.c.obj (.text:strncmp)
                  20017df4    0000002c     release_pem4.oem4 (.text:ti_sysbios_gates_GateHwi_Handle__label__S)
                  20017e20    0000002c     release_pem4.oem4 (.text:ti_sysbios_gates_GateMutex_Handle__label__S)
                  20017e4c    0000002c     release_pem4.oem4 (.text:ti_sysbios_heaps_HeapMem_Handle__label__S)
                  20017e78    0000002c     release_pem4.oem4 (.text:ti_sysbios_knl_Clock_doTick__I)
                  20017ea4    0000002c     release_pem4.oem4 (.text:ti_sysbios_knl_Queue_construct)
                  20017ed0    0000002c     rtsv7M4_T_le_eabi.lib : unlink.c.obj (.text:unlink)
                  20017efc    0000002a     slnetsock_release.a : slnetutils.oem4 (.text:SlNetUtil_inetPton)
                  20017f26    0000002a     driverlib.a : timer.obj (.text:TimerLoadSet)
                  20017f50    0000002a                 : timer.obj (.text:TimerPrescaleSet)
                  20017f7a    0000002a     release_pem4.oem4 (.text:calloc)
                  20017fa4    00000004     --HOLE-- [fill = 0]
                  20017fa8    0000002a     sysbios.aem4 : BIOS.obj (.text:sem_init)
                  20017fd2    00000002     --HOLE-- [fill = 0]
                  20017fd4    00000028     dht22.obj (.text:DHT_begin)
                  20017ffc    00000028     driverlib.a : prcm.obj (.text:PRCMPeripheralClkDisable)
                  20018024    00000028     dpl_cc32xx.aem4 : PowerCC32XX_tirtos.oem4 (.text:PowerCC32XX_initPolicy)
                  2001804c    00000028     drivers_cc32xx.aem4 : PowerCC32XX.oem4 (.text:Power_registerNotify)
                  20018074    00000028     slnetsock_release.a : slnetif.oem4 (.text:SlNetIf_getIfByID)
                  2001809c    00000028                         : slnetsock.oem4 (.text:SlNetSock_secAttribDelete)
                  200180c4    00000028     simplelink.a : driver.obj (.text:_SlDrvProtectionObjLockWaitForever)
                  200180ec    00000028                  : driver.obj (.text:_SlDrvProtectionObjUnLock)
                  20018114    00000028                  : flowcont.obj (.text:_SlFlowContSet)
                  2001813c    00000028     rtsv7M4_T_le_eabi.lib : lseek.c.obj (.text:lseek)
                  20018164    00000028     sysbios.aem4 : m3_Hwi_asm.obj (.text:ti_sysbios_family_arm_m3_Hwi_excHandlerAsm__I)
                  2001818c    00000004     --HOLE-- [fill = 0]
                  20018190    00000028                  : BIOS.obj (.text:ti_sysbios_knl_Clock_addI__E)
                  200181b8    00000028                  : BIOS.obj (.text:ti_sysbios_knl_Swi_Module_startup__E)
                  200181e0    00000028     rtsv7M4_T_le_eabi.lib : write.c.obj (.text:write)
                  20018208    00000026     drivers_cc32xx.aem4 : List.oem4 (.text:List_put)
                  2001822e    00000026                         : List.oem4 (.text:List_remove)
                  20018254    00000024                         : PowerCC32XX.oem4 (.text:PowerCC32XX_reset)
                  20018278    00000024     slnetsock_release.a : slnetif.oem4 (.text:SlNetIf_getConnectionStatus)
                  2001829c    00000024                         : slnetsock.oem4 (.text:SlNetSock_getIfID)
                  200182c0    00000024     simplelink.a : driver.obj (.text:_SlDrvIsApiInProgress)
                  200182e4    00000024                  : driver.obj (.text:_SlDrvStartMeasureTimeout)
                  20018308    00000024     sysbios.aem4 : BIOS.obj (.text:pthread_attr_init)
                  2001832c    00000024     release_pem4.oem4 (.text:ti_sysbios_BIOS_registerRTSLock__I)
                  20018350    00000024     release_pem4.oem4 (.text:ti_sysbios_BIOS_removeRTSLock__I)
                  20018374    00000004     --HOLE-- [fill = 0]
                  20018378    00000024     sysbios.aem4 : BIOS.obj (.text:ti_sysbios_family_arm_m3_Timer_postInit__I)
                  2001839c    00000004     --HOLE-- [fill = 0]
                  200183a0    00000024                  : BIOS.obj (.text:ti_sysbios_family_arm_m3_Timer_startup__E)
                  200183c4    00000024     release_pem4.oem4 (.text:ti_sysbios_gates_GateMutex_Object__delete__S)
                  200183e8    00000024     sysbios.aem4 : BIOS.obj (.text:ti_sysbios_knl_Clock_Module_startup__E)
                  2001840c    00000024     release_pem4.oem4 (.text:ti_sysbios_knl_Clock_Object__delete__S)
                  20018430    00000024     sysbios.aem4 : BIOS.obj (.text:ti_sysbios_knl_Clock_start__E)
                  20018454    00000004     --HOLE-- [fill = 0]
                  20018458    00000024                  : BIOS.obj (.text:ti_sysbios_knl_Semaphore_Instance_init__E)
                  2001847c    00000024     release_pem4.oem4 (.text:ti_sysbios_knl_Semaphore_Object__delete__S)
                  200184a0    00000024     sysbios.aem4 : BIOS.obj (.text:ti_sysbios_knl_Task_restoreHwi__E)
                  200184c4    00000004     --HOLE-- [fill = 0]
                  200184c8    00000024                  : BIOS.obj (.text:xdc_runtime_Error_policyMin__E)
                  200184ec    00000022     driverlib.a : timer.obj (.text:TimerValueSet)
                  2001850e    00000002     --HOLE-- [fill = 0]
                  20018510    00000020     drivers_cc32xx.aem4 : PowerCC32XX.oem4 (.text:Power_unregisterNotify)
                  20018530    00000020                         : RingBuf.oem4 (.text:RingBuf_peek)
                  20018550    00000020     slnetifwifi.a : slnetifwifi.obj (.text:SlNetIfWifi_accept)
                  20018570    00000020     drivers_cc32xx.aem4 : SPICC32XXDMA.oem4 (.text:getPowerMgrId)
                  20018590    00000020                         : UARTCC32XX.oem4 (.text:getPowerMgrId)
                  200185b0    00000020     rtsv7M4_T_le_eabi.lib : memchr.c.obj (.text:memchr)
                  200185d0    00000020                           : u_tofd_t2.asm.obj (.text)
                  200185f0    00000020     release_pem4.oem4 (.text:ti_sysbios_BIOS_rtsLock__I)
                  20018610    00000020     release_pem4.oem4 (.text:ti_sysbios_family_arm_m3_Hwi_Object__delete__S)
                  20018630    00000020     sysbios.aem4 : BIOS.obj (.text:ti_sysbios_family_arm_m3_Hwi_clearInterrupt__E)
                  20018650    00000020     release_pem4.oem4 (.text:ti_sysbios_gates_GateHwi_Object__delete__S)
                  20018670    00000020     release_pem4.oem4 (.text:ti_sysbios_heaps_HeapMem_Object__delete__S)
                  20018690    00000020     sysbios.aem4 : BIOS.obj (.text:ti_sysbios_knl_Idle_run__E)
                  200186b0    00000020     release_pem4.oem4 (.text:ti_sysbios_knl_Semaphore_destruct)
                  200186d0    00000020     release_pem4.oem4 (.text:ti_sysbios_knl_Task_Object__delete__S)
                  200186f0    0000001e     slnetifwifi.a : slnetifwifi.obj (.text:SlNetIfWifi_bind)
                  2001870e    0000001e                   : slnetifwifi.obj (.text:SlNetIfWifi_connect)
                  2001872c    0000001e     driverlib.a : timer.obj (.text:TimerDisable)
                  2001874a    0000001e                 : timer.obj (.text:TimerEnable)
                  20018768    0000001e     simplelink.a : driver.obj (.text:_SlDrvObjLockWaitForever)
                  20018786    0000001e                  : driver.obj (.text:_SlDrvObjUnLock)
                  200187a4    0000001e                  : driver.obj (.text:_SlDrvSyncObjSignal)
                  200187c2    0000001e     drivers_cc32xx.aem4 : UDMACC32XX.oem4 (.text:postNotifyFxn)
                  200187e0    0000001e     httpclient_release.a : httpclient.oem4 (.text:searchRequestHeader)
                  200187fe    0000001e     rtsv7M4_T_le_eabi.lib : strcat.c.obj (.text:strcat)
                  2001881c    0000001e     sysbios.aem4 : m3_Hwi_asm_switch.obj (.text:ti_sysbios_family_xxx_Hwi_switchAndRunFunc)
                  2001883a    00000002     --HOLE-- [fill = 0]
                  2001883c    0000001c     driverlib.a : pin.obj (.text:PinToPadGet)
                  20018858    0000001c                 : timer.obj (.text:TimerValueGet)
                  20018874    0000001c     simplelink.a : device.obj (.text:_SlDeviceGetStartResponseConvert)
                  20018890    0000001c                  : spawn.obj (.text:_SlInternalIsItSpawnThread)
                  200188ac    0000001c     rtsv7M4_T_le_eabi.lib : memccpy.c.obj (.text:memccpy)
                  200188c8    0000001c     sysbios.aem4 : BIOS.obj (.text:ti_sysbios_family_arm_m3_Hwi_excHandler__I)
                  200188e4    00000004     --HOLE-- [fill = 0]
                  200188e8    0000001c                  : BIOS.obj (.text:ti_sysbios_family_arm_m3_Timer_Module_startup__E)
                  20018904    00000004     --HOLE-- [fill = 0]
                  20018908    0000001c                  : BIOS.obj (.text:ti_sysbios_family_arm_m3_Timer_stop__E)
                  20018924    00000004     --HOLE-- [fill = 0]
                  20018928    0000001c                  : BIOS.obj (.text:ti_sysbios_gates_GateMutex_Instance_init__E)
                  20018944    00000004     --HOLE-- [fill = 0]
                  20018948    0000001c                  : BIOS.obj (.text:ti_sysbios_knl_Clock_Instance_finalize__E)
                  20018964    0000001c     release_pem4.oem4 (.text:ti_sysbios_knl_Queue_destruct)
                  20018980    0000001c     sysbios.aem4 : BIOS.obj (.text:ti_sysbios_knl_Queue_put__E)
                  2001899c    00000004     --HOLE-- [fill = 0]
                  200189a0    0000001c                  : BIOS.obj (.text:ti_sysbios_knl_Task_enter__I)
                  200189bc    00000004     --HOLE-- [fill = 0]
                  200189c0    0000001c                  : BIOS.obj (.text:ti_sysbios_rts_ti_ReentSupport_getReent__F)
                  200189dc    0000001c     httpclient_release.a : httpclient.oem4 (.text:validateResponseHeader)
                  200189f8    0000001a     slnetifwifi.a : slnetifwifi.obj (.text:SlNetIfWifi_listen)
                  20018a12    0000001a     release_pem4.oem4 (.text:free)
                  20018a2c    0000001a     sysbios.aem4 : m3_Hwi_asm.obj (.text:ti_sysbios_family_arm_m3_Hwi_pendSV__I)
                  20018a46    00000002     --HOLE-- [fill = 0]
                  20018a48    00000018     drivers_cc32xx.aem4 : PowerCC32XX.oem4 (.text:Power_idleFunc)
                  20018a60    00000018                         : TimerCC32XX.oem4 (.text:TimerCC32XX_getCount)
                  20018a78    00000018     driverlib.a : timer.obj (.text:TimerIntDisable)
                  20018a90    00000018                 : timer.obj (.text:TimerIntEnable)
                  20018aa8    00000018                 : uart.obj (.text:UARTBusy)
                  20018ac0    00000018                 : uart.obj (.text:UARTIntEnable)
                  20018ad8    00000018     drivers_cc32xx.aem4 : UART.oem4 (.text:UART_Params_init)
                  20018af0    00000018     rtsv7M4_T_le_eabi.lib : args_main.c.obj (.text:_args_main)
                  20018b08    00000018                           : vsnprintf.c.obj (.text:_outc)
                  20018b20    00000018                           : sprintf.c.obj (.text:_outs)
                  20018b38    00000018     httpclient_release.a : httpclient.oem4 (.text:countChar)
                  20018b50    00000018     dht22.obj (.text:restartCapture)
                  20018b68    00000018     rtsv7M4_T_le_eabi.lib : ll_mul_t2.asm.obj (.text)
                  20018b80    00000018                           : strcmp.c.obj (.text:strcmp)
                  20018b98    00000018     release_pem4.oem4 (.text:ti_sysbios_BIOS_rtsUnlock__I)
                  20018bb0    00000018     release_pem4.oem4 (.text:ti_sysbios_family_arm_m3_Hwi_Module__startupDone__F)
                  20018bc8    00000018     release_pem4.oem4 (.text:ti_sysbios_family_arm_m3_Timer_Module__startupDone__F)
                  20018be0    00000018     sysbios.aem4 : BIOS.obj (.text:ti_sysbios_gates_GateMutex_leave__E)
                  20018bf8    00000018                  : BIOS.obj (.text:ti_sysbios_knl_Task_sleepTimeout__I)
                  20018c10    00000018     release_pem4.oem4 (.text:ti_sysbios_rts_ti_ReentSupport_getTlsAddr__I)
                  20018c28    00000018     PEMS.obj (.text:timer_callback)
                  20018c40    00000018     sysbios.aem4 : BIOS.obj (.text:xdc_runtime_Error_init__E)
                  20018c58    00000018                  : BIOS.obj (.text:xdc_runtime_System_exit__E)
                  20018c70    00000016     driverlib.a : prcm.obj (.text:PRCMHIBRegRead)
                  20018c86    00000016                 : prcm.obj (.text:PRCMHIBRegWrite)
                  20018c9c    00000016     simplelink.a : driver.obj (.text:_SlDrvMemZero)
                  20018cb2    00000016     httpclient_release.a : httpclient.oem4 (.text:clearNonPersistResponseFilter)
                  20018cc8    00000016     MHZ16.obj (.text:getPPM)
                  20018cde    00000002     --HOLE-- [fill = 0]
                  20018ce0    00000016     sysbios.aem4 : BIOS.obj (.text:pthread_mutex_destroy)
                  20018cf6    00000016     rtsv7M4_T_le_eabi.lib : strchr.c.obj (.text:strchr)
                  20018d0c    00000016     release_pem4.oem4 (.text:ti_sysbios_BIOS_exitFunc__I)
                  20018d22    00000002     --HOLE-- [fill = 0]
                  20018d24    00000014     drivers_cc32xx.aem4 : PWM.oem4 (.text:PWM_Params_init)
                  20018d38    00000014                         : PowerCC32XX.oem4 (.text:Power_getDependencyCount)
                  20018d4c    00000014                         : SPI.oem4 (.text:SPI_Params_init)
                  20018d60    00000014     sysbios.aem4 : BIOS.obj (.text:pthread_attr_setschedparam)
                  20018d74    00000014     drivers_cc32xx.aem4 : UARTCC32XX.oem4 (.text:releasePowerConstraint)
                  20018d88    00000014     rtsv7M4_T_le_eabi.lib : strcpy.c.obj (.text:strcpy)
                  20018d9c    00000014                           : strlen.c.obj (.text:strlen)
                  20018db0    00000014     release_pem4.oem4 (.text:ti_sysbios_family_arm_m3_Hwi_Object__get__S)
                  20018dc4    00000004     --HOLE-- [fill = 0]
                  20018dc8    00000014     sysbios.aem4 : BIOS.obj (.text:ti_sysbios_family_arm_m3_Hwi_switchFromBootStack__E)
                  20018ddc    00000014     release_pem4.oem4 (.text:ti_sysbios_heaps_HeapMem_Object__get__S)
                  20018df0    00000014     sysbios.aem4 : BIOS.obj (.text:ti_sysbios_knl_Clock_tickReconfig__E)
                  20018e04    00000014     release_pem4.oem4 (.text:ti_sysbios_knl_Swi_Object__get__S)
                  20018e18    00000014     IRBlaster.obj (.text:timerCallback)
                  20018e2c    00000012     drivers_cc32xx.aem4 : RingBuf.oem4 (.text:RingBuf_construct)
                  20018e3e    00000012     dpl_cc32xx.aem4 : SemaphoreP_tirtos.oem4 (.text:SemaphoreP_pend)
                  20018e50    00000012     slnetifwifi.a : slnetifwifi.obj (.text:SlNetIfWifi_close)
                  20018e62    00000012     driverlib.a : timer.obj (.text:TimerIntClear)
                  20018e74    00000004     --HOLE-- [fill = 0]
                  20018e78    00000012     sysbios.aem4 : BIOS.obj (.text:_pthread_runStub$41)
                  20018e8a    00000012     drivers_cc32xx.aem4 : PWMTimerCC32XX.oem4 (.text:postNotifyFxn)
                  20018e9c    00000004     --HOLE-- [fill = 0]
                  20018ea0    00000012     sysbios.aem4 : BIOS.obj (.text:ti_sysbios_hal_Hwi_Module_startup__E)
                  20018eb2    00000012     rtsv7M4_T_le_eabi.lib : wcslen.c.obj (.text:wcslen)
                  20018ec4    00000012     release_pem4.oem4 (.text:xdc_runtime_Startup_exec__I)
                  20018ed6    00000010     ti_drivers_config.obj (.text:Board_init)
                  20018ee6    00000002     --HOLE-- [fill = 0]
                  20018ee8    00000010     drivers_cc32xx.aem4 : Capture.oem4 (.text:Capture_Params_init)
                  20018ef8    00000010     dpl_cc32xx.aem4 : HwiP_tirtos.oem4 (.text:HwiP_Params_init)
                  20018f08    00000010     slnetsock_release.a : slnetsock.oem4 (.text:SlNetSock_secAttribCreate)
                  20018f18    00000010     drivers_cc32xx.aem4 : Timer.oem4 (.text:Timer_Params_init)
                  20018f28    00000010     simplelink.a : driver.obj (.text:_SlDrvDispatchHttpServerEvents)
                  20018f38    00000010                  : driver.obj (.text:_SlDrvDispatchNetAppRequestEvents)
                  20018f48    00000010                  : driver.obj (.text:_SlDrvIsSpawnOwnGlobalLock)
                  20018f58    00000010     ti_drivers_config.obj (.text:dmaErrorFxn)
                  20018f68    00000010     sysbios.aem4 : BIOS.obj (.text:pthread_mutexattr_init)
                  20018f78    00000010                  : BIOS.obj (.text:pthread_mutexattr_settype)
                  20018f88    00000010     drivers_cc32xx.aem4 : UARTCC32XX.oem4 (.text:readBlockingTimeout)
                  20018f98    00000010     httpclient_release.a : httpclient.oem4 (.text:skipWhiteSpace)
                  20018fa8    00000010     sysbios.aem4 : BIOS.obj (.text:ti_sysbios_BIOS_getCpuFreq__E)
                  20018fb8    00000010                  : BIOS.obj (.text:ti_sysbios_BIOS_setThreadType__E)
                  20018fc8    00000010                  : BIOS.obj (.text:ti_sysbios_BIOS_start__E)
                  20018fd8    00000010                  : m3_TaskSupport_asm.obj (.text:ti_sysbios_family_arm_m3_TaskSupport_glue)
                  20018fe8    00000010                  : m3_TaskSupport_asm.obj (.text:ti_sysbios_family_arm_m3_TaskSupport_swap__E)
                  20018ff8    00000010                  : BIOS.obj (.text:ti_sysbios_gates_GateMutex_Instance_finalize__E)
                  20019008    00000010     release_pem4.oem4 (.text:ti_sysbios_knl_Mailbox_Object__get__S)
                  20019018    00000010     sysbios.aem4 : BIOS.obj (.text:ti_sysbios_knl_Semaphore_Instance_finalize__E)
                  20019028    00000010                  : BIOS.obj (.text:ti_sysbios_knl_Swi_disable__E)
                  20019038    00000010     release_pem4.oem4 (.text:ti_sysbios_knl_Task_Object__get__S)
                  20019048    00000010     sysbios.aem4 : BIOS.obj (.text:ti_sysbios_knl_Task_disable__E)
                  20019058    00000010                  : BIOS.obj (.text:xdc_runtime_Memory_free__E)
                  20019068    00000010                  : BIOS.obj (.text:xdc_runtime_SysCallback_abort__E)
                  20019078    00000010                  : BIOS.obj (.text:xdc_runtime_SysCallback_exit__E)
                  20019088    0000000e     drivers_cc32xx.aem4 : RingBuf.oem4 (.text:RingBuf_isFull)
                  20019096    0000000e     simplelink.a : driver.obj (.text:_SlDrvResetCmdExt)
                  200190a4    0000000e     rtsv7M4_T_le_eabi.lib : copy_decompress_none.c.obj (.text:decompress:none:__TI_decompress_none)
                  200190b2    0000000e     drivers_cc32xx.aem4 : SPICC32XXDMA.oem4 (.text:postNotifyFxn)
                  200190c0    0000000e     sysbios.aem4 : BIOS.obj (.text:pthread_attr_setdetachstate)
                  200190ce    00000002     --HOLE-- [fill = 0]
                  200190d0    0000000e                  : BIOS.obj (.text:sem_wait)
                  200190de    0000000e     simplelink.a : cc_pal.obj (.text:spi_Close)
                  200190ec    00000004     --HOLE-- [fill = 0]
                  200190f0    0000000e     sysbios.aem4 : BIOS.obj (.text:ti_sysbios_knl_Idle_loop__E)
                  200190fe    00000002     --HOLE-- [fill = 0]
                  20019100    0000000e                  : BIOS.obj (.text:ti_sysbios_knl_Queue_empty__E)
                  2001910e    0000000c     dpl_cc32xx.aem4 : ClockP_tirtos.oem4 (.text:ClockP_delete)
                  2001911a    00000002     --HOLE-- [fill = 0]
                  2001911c    0000000c                     : ClockP_tirtos.oem4 (.text:ClockP_getSystemTickPeriod)
                  20019128    0000000c                     : HwiP_tirtos.oem4 (.text:HwiP_delete)
                  20019134    0000000c     simplelink.a : cc_pal.obj (.text:NwpMaskInterrupt)
                  20019140    0000000c                  : cc_pal.obj (.text:NwpUnMaskInterrupt)
                  2001914c    0000000c     drivers_cc32xx.aem4 : PowerCC32XX.oem4 (.text:Power_getConstraintMask)
                  20019158    0000000c     dpl_cc32xx.aem4 : SemaphoreP_tirtos.oem4 (.text:SemaphoreP_delete)
                  20019164    0000000c     platform.obj (.text:SimpleLinkHttpServerEventHandler)
                  20019170    0000000c     platform.obj (.text:SimpleLinkNetAppRequestEventHandler)
                  2001917c    0000000c     simplelink.a : device.obj (.text:_SlDeviceResetRequestInitCompletedCB)
                  20019188    0000000c     rtsv7M4_T_le_eabi.lib : _lock.c.obj (.text:_register_lock)
                  20019194    0000000c                           : _lock.c.obj (.text:_register_unlock)
                  200191a0    0000000c                           : s_copysign.c.obj (.text:copysign)
                  200191ac    0000000c                           : copy_zero_init.c.obj (.text:decompress:ZI:__TI_zero_init)
                  200191b8    0000000c     drivers_cc32xx.aem4 : CaptureCC32XX.oem4 (.text:postNotifyFxn)
                  200191c4    0000000c                         : TimerCC32XX.oem4 (.text:postNotifyFxn)
                  200191d0    0000000c                         : UARTCC32XX.oem4 (.text:postNotifyFxn)
                  200191dc    00000004     --HOLE-- [fill = 0]
                  200191e0    0000000c     sysbios.aem4 : BIOS.obj (.text:pthread_self)
                  200191ec    0000000c     release_pem4.oem4 (.text:ti_sysbios_family_arm_m3_Hwi_Params__init__S)
                  200191f8    0000000c     sysbios.aem4 : BIOS.obj (.text:ti_sysbios_family_arm_m3_Hwi_disableFxn__E)
                  20019204    00000004     --HOLE-- [fill = 0]
                  20019208    0000000c                  : BIOS.obj (.text:ti_sysbios_family_arm_m3_TaskSupport_getStackAlignment__E)
                  20019214    00000004     --HOLE-- [fill = 0]
                  20019218    0000000c                  : BIOS.obj (.text:ti_sysbios_gates_GateHwi_enter__E)
                  20019224    0000000c     release_pem4.oem4 (.text:ti_sysbios_knl_Clock_Params__init__S)
                  20019230    0000000c     sysbios.aem4 : BIOS.obj (.text:ti_sysbios_knl_Clock_getTicks__E)
                  2001923c    00000004     --HOLE-- [fill = 0]
                  20019240    0000000c                  : BIOS.obj (.text:ti_sysbios_knl_Clock_setTicks__E)
                  2001924c    00000004     --HOLE-- [fill = 0]
                  20019250    0000000c                  : BIOS.obj (.text:ti_sysbios_knl_Clock_tickStart__E)
                  2001925c    00000004     --HOLE-- [fill = 0]
                  20019260    0000000c                  : BIOS.obj (.text:ti_sysbios_knl_Clock_tickStop__E)
                  2001926c    0000000c     release_pem4.oem4 (.text:ti_sysbios_knl_Queue_Object__get__S)
                  20019278    0000000c     release_pem4.oem4 (.text:ti_sysbios_knl_Semaphore_Params__init__S)
                  20019284    0000000c     release_pem4.oem4 (.text:ti_sysbios_knl_Task_Params__init__S)
                  20019290    0000000c     sysbios.aem4 : BIOS.obj (.text:ti_sysbios_knl_Task_self__E)
                  2001929c    00000004     --HOLE-- [fill = 0]
                  200192a0    0000000c                  : BIOS.obj (.text:ti_sysbios_rts_ti_ReentSupport_taskRegHook__I)
                  200192ac    0000000c     driverlib.a : udma.obj (.text:uDMAErrorStatusClear)
                  200192b8    0000000c                 : udma.obj (.text:uDMAErrorStatusGet)
                  200192c4    00000004     --HOLE-- [fill = 0]
                  200192c8    0000000c     sysbios.aem4 : BIOS.obj (.text:xdc_runtime_Startup_rtsDone__E)
                  200192d4    0000000a     drivers_cc32xx.aem4 : Capture.oem4 (.text:Capture_close)
                  200192de    0000000a                         : Capture.oem4 (.text:Capture_start)
                  200192e8    0000000a                         : Capture.oem4 (.text:Capture_stop)
                  200192f2    0000000a     dpl_cc32xx.aem4 : ClockP_tirtos.oem4 (.text:ClockP_Params_init)
                  200192fc    0000000a     drivers_cc32xx.aem4 : PWM.oem4 (.text:PWM_setDuty)
                  20019306    0000000a                         : PWM.oem4 (.text:PWM_start)
                  20019310    0000000a                         : PWM.oem4 (.text:PWM_stop)
                  2001931a    0000000a                         : SPI.oem4 (.text:SPI_close)
                  20019324    0000000a                         : SPI.oem4 (.text:SPI_transfer)
                  2001932e    0000000a     platform.obj (.text:SimpleLinkFatalErrorEventHandler)
                  20019338    0000000a     platform.obj (.text:SimpleLinkGeneralEventHandler)
                  20019342    0000000a     platform.obj (.text:SimpleLinkNetAppRequestMemFreeEventHandler)
                  2001934c    0000000a     platform.obj (.text:SimpleLinkSockEventHandler)
                  20019356    0000000a     platform.obj (.text:SimpleLinkWlanEventHandler)
                  20019360    0000000a     drivers_cc32xx.aem4 : Timer.oem4 (.text:Timer_close)
                  2001936a    0000000a                         : Timer.oem4 (.text:Timer_setPeriod)
                  20019374    0000000a                         : Timer.oem4 (.text:Timer_start)
                  2001937e    0000000a                         : Timer.oem4 (.text:Timer_stop)
                  20019388    0000000a                         : UART.oem4 (.text:UART_control)
                  20019392    0000000a                         : UART.oem4 (.text:UART_read)
                  2001939c    0000000a                         : UART.oem4 (.text:UART_write)
                  200193a6    0000000a     rtsv7M4_T_le_eabi.lib : sprintf.c.obj (.text:_outc)
                  200193b0    0000000a     sysbios.aem4 : BIOS.obj (.text:sem_destroy)
                  200193ba    00000006     drivers_cc32xx.aem4 : PWMTimerCC32XX.oem4 (.text:PWMTimerCC32XX_control)
                  200193c0    0000000a     sysbios.aem4 : BIOS.obj (.text:sem_post)
                  200193ca    0000000a     simplelink.a : device.obj (.text:sl_Task)
                  200193d4    0000000a     release_pem4.oem4 (.text:xdc_runtime_IHeap_alloc)
                  200193de    0000000a     release_pem4.oem4 (.text:xdc_runtime_IHeap_free)
                  200193e8    00000008     dpl_cc32xx.aem4 : SemaphoreP_tirtos.oem4 (.text:SemaphoreP_Params_init)
                  200193f0    00000008     simplelink.a : cc_pal.obj (.text:TimerGetCurrentTimestamp)
                  200193f8    00000008     drivers_cc32xx.aem4 : SPICC32XXDMA.oem4 (.text:blockingTransferCallback)
                  20019400    00000008     sysbios.aem4 : BIOS.obj (.text:pthread_attr_setstacksize)
                  20019408    00000008                  : BIOS.obj (.text:pthread_mutex_lock)
                  20019410    00000008     drivers_cc32xx.aem4 : UARTCC32XX.oem4 (.text:readSemCallback)
                  20019418    00000008     sysbios.aem4 : BIOS.obj (.text:sem_getvalue)
                  20019420    00000008                  : BIOS.obj (.text:ti_sysbios_family_arm_m3_Hwi_doSwiRestore__I)
                  20019428    00000008                  : BIOS.obj (.text:ti_sysbios_family_arm_m3_Hwi_startup__E)
                  20019430    00000008     drivers_cc32xx.aem4 : UARTCC32XX.oem4 (.text:writeSemCallback)
                  20019438    00000006                         : SPICC32XXDMA.oem4 (.text:SPICC32XXDMA_control)
                  2001943e    00000006                         : TimerCC32XX.oem4 (.text:TimerCC32XX_control)
                  20019444    00000006     driverlib.a : utils.obj (.text:UtilsDelay)
                  2001944a    00000006     --HOLE-- [fill = 0]
                  20019450    00000006     sysbios.aem4 : BIOS.obj (.text:ti_sysbios_family_arm_m3_Hwi_doTaskRestore__I)
                  20019456    00000002     --HOLE-- [fill = 0]
                  20019458    00000006                  : BIOS.obj (.text:ti_sysbios_family_arm_m3_Hwi_restoreFxn__E)
                  2001945e    00000002     --HOLE-- [fill = 0]
                  20019460    00000006                  : BIOS.obj (.text:ti_sysbios_gates_GateHwi_leave__E)
                  20019466    00000002     --HOLE-- [fill = 0]
                  20019468    00000006                  : BIOS.obj (.text:ti_sysbios_heaps_HeapMem_isBlocking__E)
                  2001946e    00000002     --HOLE-- [fill = 0]
                  20019470    00000006                  : BIOS.obj (.text:ti_sysbios_knl_Clock_stop__E)
                  20019476    00000002     --HOLE-- [fill = 0]
                  20019478    00000006                  : BIOS.obj (.text:ti_sysbios_knl_Queue_Instance_init__E)
                  2001947e    00000002     --HOLE-- [fill = 0]
                  20019480    00000006                  : BIOS.obj (.text:ti_sysbios_knl_Swi_startup__E)
                  20019486    00000002     --HOLE-- [fill = 0]
                  20019488    00000006                  : BIOS.obj (.text:xdc_runtime_System_Module_startup__E)
                  2001948e    00000002     --HOLE-- [fill = 0]
                  20019490    00000004                  : BIOS.obj (.text:__aeabi_errno_addr)
                  20019494    00000004     --HOLE-- [fill = 0]
                  20019498    00000004                  : BIOS.obj (.text:ti_sysbios_family_arm_m3_Timer_getMaxTicks__E)
                  2001949c    00000004     --HOLE-- [fill = 0]
                  200194a0    00000004                  : BIOS.obj (.text:ti_sysbios_gates_GateHwi_query__E)
                  200194a4    00000004     --HOLE-- [fill = 0]
                  200194a8    00000004                  : BIOS.obj (.text:ti_sysbios_gates_GateMutex_query__E)
                  200194ac    00000004     --HOLE-- [fill = 0]
                  200194b0    00000004                  : BIOS.obj (.text:ti_sysbios_knl_Clock_setTimeout__E)
                  200194b4    00000004     --HOLE-- [fill = 0]
                  200194b8    00000004                  : BIOS.obj (.text:ti_sysbios_knl_Task_startup__E)
                  200194bc    00000004     --HOLE-- [fill = 0]
                  200194c0    00000002                  : BIOS.obj (.text:ti_sysbios_BIOS_linkedWithIncorrectBootLibrary__E)
                  200194c2    00000006     --HOLE-- [fill = 0]
                  200194c8    00000002                  : BIOS.obj (.text:ti_sysbios_gates_GateHwi_Instance_init__E)
                  200194ca    00000006     --HOLE-- [fill = 0]
                  200194d0    00000002                  : BIOS.obj (.text:ti_sysbios_knl_Clock_logTick__E)
                  200194d2    00000006     --HOLE-- [fill = 0]
                  200194d8    00000002                  : BIOS.obj (.text:xdc_runtime_SysCallback_defaultAbort)
                  200194da    00000006     --HOLE-- [fill = 0]
                  200194e0    00000002                  : BIOS.obj (.text:xdc_runtime_SysCallback_defaultExit)
                  200194e2    00000006     --HOLE-- [fill = 0]
                  200194e8    00000002                  : BIOS.obj (.text:xdc_runtime_System_abortSpin__E)
                  200194ea    00000006     --HOLE-- [fill = 0]
                  200194f0    00000002                  : BIOS.obj (.text:xdc_runtime_System_exitSpin__E)

.bss       0    20021800    00001518     UNINITIALIZED
                  20021800    00000400     ti_drivers_config.obj (.bss:dmaControlTable)
                  20021c00    000003fc     (.common:g_CB)
                  20021ffc    0000030c     (.common:ti_sysbios_family_arm_m3_Hwi_dispatchTable)
                  20022308    00000200     release_pem4.oem4 (.bss:taskStackSection)
                  20022508    00000144     (.common:data)
                  2002264c    0000012c     (.common:PowerCC32XX_contextSave)
                  20022778    00000120     rtsv7M4_T_le_eabi.lib : trgmsg.c.obj (.bss:_CIOBUF_)
                  20022898    000000a0     (.common:__TI_tmpnams)
                  20022938    00000084     (.common:uartCC32XXObjects0)
                  200229bc    00000080     slnetsock_release.a : slnetsock.oem4 (.bss:VirtualSockets)
                  20022a3c    00000068     (.common:timerCC32XXObjects)
                  20022aa4    00000044     (.common:spiCC32XXDMAObjects)
                  20022ae8    00000030     (.common:captureCC32XXObjects)
                  20022b18    0000002c     (.common:GlobalLockObj)
                  20022b44    00000028     (.common:g_SlInternalSpawnCB)
                  20022b6c    00000024     (.common:CO2params)
                  20022b90    00000024     (.common:paramsCO2)
                  20022bb4    00000024     (.common:pwmTimerCC32XXObjects)
                  20022bd8    00000020     drivers_cc32xx.aem4 : GPIOCC32XX.oem4 (.bss:gpioCallbackInfo)
                  20022bf8    00000020     ti_drivers_config.obj (.bss:uartCC32XXRingBuffer0)
                  20022c18    0000001c     slnetsock_release.a : slnetsock.oem4 (.bss:VirtualSocketSem)
                  20022c34    00000014     drivers_cc32xx.aem4 : UDMACC32XX.oem4 (.bss:postNotifyObj)
                  20022c48    00000014                         : GPIOCC32XX.oem4 (.bss:powerNotifyObj)
                  20022c5c    0000000c     (.common:DHT_Data)
                  20022c68    0000000c     (.common:DeviceCB)
                  20022c74    0000000c     (.common:Msg)
                  20022c80    0000000c     (.common:args)
                  20022c8c    0000000c     (.common:captParams)
                  20022c98    0000000c     (.common:finaldata)
                  20022ca4    0000000c     (.common:packet)
                  20022cb0    0000000c     (.common:params)
                  20022cbc    00000008                         : CaptureCC32XX.oem4 (.bss:clockFreq)
                  20022cc4    00000008     (.common:parmbuf)
                  20022ccc    00000008     (.common:udmaCC3220SObject)
                  20022cd4    00000004                         : GPIOCC32XX.oem4 (.bss)
                  20022cd8    00000004                         : TimerCC32XX.oem4 (.bss:timerState)
                  20022cdc    00000004     (.common:CO2uart)
                  20022ce0    00000004     (.common:ClockP_tickPeriod)
                  20022ce4    00000004     (.common:buffer)
                  20022ce8    00000004     (.common:captHandle)
                  20022cec    00000004     (.common:i)
                  20022cf0    00000004     (.common:j)
                  20022cf4    00000004     (.common:mode)
                  20022cf8    00000004     (.common:pwm1)
                  20022cfc    00000004     (.common:spiCC32XXSDMAscratchBuf)
                  20022d00    00000004     (.common:ti_sysbios_knl_Task_Instance_State_0_hookEnv__A)
                  20022d04    00000004     (.common:timer)
                  20022d08    00000004     (.common:timer0)
                  20022d0c    00000004     (.common:uartCO2)
                  20022d10    00000001     (.common:D4)
                  20022d11    00000001     (.common:D5)
                  20022d12    00000001     (.common:D6)
                  20022d13    00000001     (.common:D7)
                  20022d14    00000001     (.common:E)
                  20022d15    00000001     (.common:Rs)
                  20022d16    00000001     (.common:RxIrqCnt)
                  20022d17    00000001     (.common:TEMP)

.const     0    20022d18    00000f81     
                  20022d18    00000288     httpclient_release.a : httpclient.oem4 (.const:.string)
                  20022fa0    00000101     rtsv7M4_T_le_eabi.lib : ctype.c.obj (.const:.string:_ctypes_)
                  200230a1    00000001     release_pem4.oem4 (.const:ti_sysbios_knl_Clock_tickMode__C)
                  200230a2    00000002     release_pem4.oem4 (.const:ti_sysbios_family_arm_m3_Hwi_Module__id__C)
                  200230a4    00000100     driverlib.a : pin.obj (.const:g_ulPinToPadMap)
                  200231a4    000000a8                 : prcm.obj (.const:PRCM_PeriphRegsList)
                  2002324c    00000070     simplelink.a : driver.obj (.const:OpcodeTranslateTable)
                  200232bc    00000050                  : driver.obj (.const:_SlActionLookupTable)
                  2002330c    00000040     ti_drivers_config.obj (.const:PowerCC32XX_config)
                  2002334c    0000003c     ti_drivers_config.obj (.const:spiCC32XXDMAHWAttrs)
                  20023388    0000003c     release_pem4.oem4 (.const:ti_sysbios_knl_Task_Object__PARAMS__C)
                  200233c4    00000032     httpget.obj (.const:.string:$P$T0$1)
                  200233f6    00000032     httpget.obj (.const:.string:$P$T1$2)
                  20023428    00000032     httpget.obj (.const:.string:$P$T2$3)
                  2002345a    00000002     release_pem4.oem4 (.const:ti_sysbios_family_arm_m3_Timer_Module__id__C)
                  2002345c    00000030     release_pem4.oem4 (.const:ti_sysbios_family_arm_m3_Hwi_Object__PARAMS__C)
                  2002348c    00000028     drivers_cc32xx.aem4 : UARTCC32XX.oem4 (.const:UARTCC32XX_fxnTable)
                  200234b4    00000028     release_pem4.oem4 (.const:ti_sysbios_heaps_HeapMem_Module__FXNS__C)
                  200234dc    00000024     drivers_cc32xx.aem4 : PWMTimerCC32XX.oem4 (.const:PWMTimerCC32XX_fxnTable)
                  20023500    00000024                         : UART.oem4 (.const:UART_defaultParams)
                  20023524    00000024     release_pem4.oem4 (.const:ti_sysbios_gates_GateHwi_Module__FXNS__C)
                  20023548    00000024     release_pem4.oem4 (.const:ti_sysbios_gates_GateMutex_Module__FXNS__C)
                  2002356c    00000024     release_pem4.oem4 (.const:ti_sysbios_heaps_HeapMem_Object__PARAMS__C)
                  20023590    00000024     release_pem4.oem4 (.const:ti_sysbios_knl_Clock_Object__PARAMS__C)
                  200235b4    00000024     release_pem4.oem4 (.const:ti_sysbios_knl_Semaphore_Object__PARAMS__C)
                  200235d8    00000024     ti_drivers_config.obj (.const:uartCC32XXHWAttrs0)
                  200235fc    00000022     httpclient_release.a : httpclient.oem4 (.const:.string:$P$T1$2)
                  2002361e    00000021     drivers_cc32xx.aem4 : GPIOCC32XX.oem4 (.const:.string:pinTable)
                  2002363f    00000001     release_pem4.oem4 (.const:ti_sysbios_knl_Clock_tickSource__C)
                  20023640    00000020     simplelink.a : driver.obj (.const:RxMsgClassLUT)
                  20023660    00000020     drivers_cc32xx.aem4 : SPI.oem4 (.const:SPI_defaultParams)
                  20023680    00000020     simplelink.a : device.obj (.const:StartResponseLUT)
                  200236a0    00000020     drivers_cc32xx.aem4 : TimerCC32XX.oem4 (.const:TimerCC32XX_fxnTable)
                  200236c0    00000020                         : PWMTimerCC32XX.oem4 (.const:gpioPinIndexes)
                  200236e0    00000020                         : UARTCC32XX.oem4 (.const:staticFxnTable)
                  20023700    00000020     release_pem4.oem4 (.const:ti_sysbios_family_arm_m3_Hwi_Object__DESC__C)
                  20023720    00000020     release_pem4.oem4 (.const:ti_sysbios_gates_GateHwi_Object__DESC__C)
                  20023740    00000020     release_pem4.oem4 (.const:ti_sysbios_gates_GateMutex_Object__DESC__C)
                  20023760    00000020     release_pem4.oem4 (.const:ti_sysbios_heaps_HeapMem_Object__DESC__C)
                  20023780    00000020     release_pem4.oem4 (.const:ti_sysbios_knl_Clock_Object__DESC__C)
                  200237a0    00000020     release_pem4.oem4 (.const:ti_sysbios_knl_Queue_Object__DESC__C)
                  200237c0    00000020     release_pem4.oem4 (.const:ti_sysbios_knl_Semaphore_Object__DESC__C)
                  200237e0    00000020     release_pem4.oem4 (.const:ti_sysbios_knl_Task_Object__DESC__C)
                  20023800    00000020     ti_drivers_config.obj (.const:timerCC32XXHWAttrs)
                  20023820    00000020     release_pem4.oem4 (.const:xdc_runtime_Startup_sfxnTab__A)
                  20023840    00000018     drivers_cc32xx.aem4 : CaptureCC32XX.oem4 (.const:CaptureCC32XX_fxnTable)
                  20023858    00000018                         : PWM.oem4 (.const:PWM_defaultParams)
                  20023870    00000018                         : SPICC32XXDMA.oem4 (.const:SPICC32XXDMA_fxnTable)
                  20023888    00000018     ti_drivers_config.obj (.const:Timer_config)
                  200238a0    00000018     release_pem4.oem4 (.const:ti_sysbios_gates_GateHwi_Object__PARAMS__C)
                  200238b8    00000018     release_pem4.oem4 (.const:ti_sysbios_gates_GateMutex_Object__PARAMS__C)
                  200238d0    00000018     release_pem4.oem4 (.const:ti_sysbios_knl_Queue_Object__PARAMS__C)
                  200238e8    00000018     release_pem4.oem4 (.const:ti_sysbios_knl_Task_hooks__A)
                  20023900    00000014     simplelink.a : cc_pal.obj (.const:$P$T0$1)
                  20023914    00000014                  : device.obj (.const:$P$T0$1)
                  20023928    00000014                  : driver.obj (.const:$P$T0$1)
                  2002393c    00000014                  : fs.obj (.const:$P$T0$1)
                  20023950    00000014                  : cc_pal.obj (.const:$P$T1$2)
                  20023964    00000014                  : driver.obj (.const:$P$T2$3)
                  20023978    00000014     ti_drivers_config.obj (.const:GPIOCC32XX_config)
                  2002398c    00000014     slnetifwifi.a : slnetifwifi.obj (.const:StartSecOptName)
                  200239a0    00000014     drivers_cc32xx.aem4 : GPIOCC32XX.oem4 (.const:gpioBaseAddresses)
                  200239b4    00000014                         : UARTCC32XX.oem4 (.const:parityType)
                  200239c8    00000014                         : GPIOCC32XX.oem4 (.const:powerResources)
                  200239dc    00000010     simplelink.a : sl_socket.obj (.const:_SlCtrlSockAddr)
                  200239ec    00000010                  : sl_socket.obj (.const:_SlCtrlSockRelease)
                  200239fc    00000010     drivers_cc32xx.aem4 : UARTCC32XX.oem4 (.const:dataLength)
                  20023a0c    00000010                         : PWMTimerCC32XX.oem4 (.const:gpioBaseAddresses)
                  20023a1c    00000010     slnetifwifi.a : slnetifwifi.obj (.const:socketType)
                  20023a2c    00000010     drivers_cc32xx.aem4 : PWMTimerCC32XX.oem4 (.const:timerBaseAddresses)
                  20023a3c    00000010     release_pem4.oem4 (.const:xdc_runtime_Startup_sfxnRts__A)
                  20023a4c    0000000c     platform.obj (.const:$P$T0$1)
                  20023a58    0000000c     ti_drivers_config.obj (.const:Capture_config)
                  20023a64    0000000c     ti_drivers_config.obj (.const:PWM_config)
                  20023a70    0000000c     ti_drivers_config.obj (.const:SPI_config)
                  20023a7c    0000000c     ti_drivers_config.obj (.const:UART_config)
                  20023a88    0000000c     drivers_cc32xx.aem4 : Capture.oem4 (.const:defaultParams)
                  20023a94    0000000c                         : Timer.oem4 (.const:defaultParams)
                  20023aa0    0000000c                         : SPICC32XXDMA.oem4 (.const:dmaNullConfig)
                  20023aac    0000000c                         : SPICC32XXDMA.oem4 (.const:dmaRxConfig)
                  20023ab8    0000000c                         : SPICC32XXDMA.oem4 (.const:dmaTxConfig)
                  20023ac4    0000000c     ti_drivers_config.obj (.const:udmaCC3220SHWAttrs)
                  20023ad0    0000000c     release_pem4.oem4 (.const:xdc_runtime_Startup_firstFxns__A)
                  20023adc    00000008     httpclient_release.a : httpclient.oem4 (.const:.string:$P$T0$1)
                  20023ae4    00000008     ti_drivers_config.obj (.const:UDMACC32XX_config)
                  20023aec    00000008     ti_drivers_config.obj (.const:captureCC32XXHWAttrs)
                  20023af4    00000008     simplelink.a : driver.obj (.const:g_H2NCnysPattern)
                  20023afc    00000008                  : driver.obj (.const:g_H2NSyncPattern)
                  20023b04    00000008     drivers_cc32xx.aem4 : SPICC32XXDMA.oem4 (.const:mode)
                  20023b0c    00000008                         : GPIOCC32XX.oem4 (.const:outPinTypes)
                  20023b14    00000008                         : UARTCC32XX.oem4 (.const:stopBits)
                  20023b1c    00000008     release_pem4.oem4 (.const:ti_sysbios_knl_Idle_funcList__A)
                  20023b24    00000008     release_pem4.oem4 (.const:ti_sysbios_knl_Idle_funcList__C)
                  20023b2c    00000008     release_pem4.oem4 (.const:ti_sysbios_knl_Task_hooks__C)
                  20023b34    00000008     drivers_cc32xx.aem4 : PWMTimerCC32XX.oem4 (.const:timerHalves)
                  20023b3c    00000008     release_pem4.oem4 (.const:xdc_runtime_Startup_firstFxns__C)
                  20023b44    00000008     release_pem4.oem4 (.const:xdc_runtime_Startup_lastFxns__C)
                  20023b4c    00000006     drivers_cc32xx.aem4 : GPIOCC32XX.oem4 (.const:.string:interruptType)
                  20023b52    00000006                         : GPIOCC32XX.oem4 (.const:inPinTypes)
                  20023b58    00000006                         : GPIOCC32XX.oem4 (.const:outPinStrengths)
                  20023b5e    00000006     ti_drivers_config.obj (.const)
                  20023b64    00000004     simplelink.a : sl_socket.obj (.const:$P$T0$1)
                  20023b68    00000004                  : wlan.obj (.const:$P$T0$1)
                  20023b6c    00000004                  : sl_socket.obj (.const:$P$T1$2)
                  20023b70    00000004                  : sl_socket.obj (.const:$P$T2$3)
                  20023b74    00000004     drivers_cc32xx.aem4 : GPIOCC32XX.oem4 (.const:.string:portInterruptIds)
                  20023b78    00000004     simplelink.a : sl_socket.obj (.const:_SlAcceptCmdCtrl)
                  20023b7c    00000004                  : fs.obj (.const:_SlFsCloseCmdCtrl)
                  20023b80    00000004                  : fs.obj (.const:_SlFsOpenCmdCtrl)
                  20023b84    00000004                  : fs.obj (.const:_SlFsWriteCmdCtrl)
                  20023b88    00000004                  : netapp.obj (.const:_SlGetHostByNameCtrl)
                  20023b8c    00000004                  : sl_socket.obj (.const:_SlGetSockOptCmdCtrl)
                  20023b90    00000004                  : sl_socket.obj (.const:_SlListenCmdCtrl)
                  20023b94    00000004                  : netapp.obj (.const:_SlNetAppSendResponseCmdCtrl)
                  20023b98    00000004                  : netapp.obj (.const:_SlNetAppSendTokenValueCmdCtrl)
                  20023b9c    00000004                  : netcfg.obj (.const:_SlNetCfgGetCmdCtrl)
                  20023ba0    00000004                  : sl_socket.obj (.const:_SlRecvCmdCtrl)
                  20023ba4    00000004                  : sl_socket.obj (.const:_SlRecvfomCmdCtrl)
                  20023ba8    00000004                  : sl_socket.obj (.const:_SlSelectCmdCtrl)
                  20023bac    00000004                  : sl_socket.obj (.const:_SlSendCmdCtrl)
                  20023bb0    00000004                  : sl_socket.obj (.const:_SlSetSockOptCmdCtrl)
                  20023bb4    00000004                  : sl_socket.obj (.const:_SlSockCloseCmdCtrl)
                  20023bb8    00000004                  : sl_socket.obj (.const:_SlSockSocketCmdCtrl)
                  20023bbc    00000004                  : device.obj (.const:_SlStopCmdCtrl)
                  20023bc0    00000004                  : wlan.obj (.const:_SlWlanCfgGetCmdCtrl)
                  20023bc4    00000004                  : wlan.obj (.const:_SlWlanSetModeCmdCtrl)
                  20023bc8    00000004     ti_drivers_config.obj (.const:pwmTimerCC32XXHWAttrs)
                  20023bcc    00000004     release_pem4.oem4 (.const:ti_sysbios_family_arm_m3_Hwi_E_alreadyDefined__C)
                  20023bd0    00000004     release_pem4.oem4 (.const:ti_sysbios_family_arm_m3_Hwi_E_badIntNum__C)
                  20023bd4    00000004     release_pem4.oem4 (.const:ti_sysbios_family_arm_m3_Hwi_NUM_INTERRUPTS__C)
                  20023bd8    00000004     release_pem4.oem4 (.const:ti_sysbios_family_arm_m3_Hwi_Object__count__C)
                  20023bdc    00000004     release_pem4.oem4 (.const:ti_sysbios_family_arm_m3_Hwi_ccr__C)
                  20023be0    00000004     release_pem4.oem4 (.const:ti_sysbios_family_arm_m3_Hwi_excHandlerFunc__C)
                  20023be4    00000004     release_pem4.oem4 (.const:ti_sysbios_family_arm_m3_Hwi_nullIsrFunc__C)
                  20023be8    00000004     release_pem4.oem4 (.const:ti_sysbios_family_arm_m3_Hwi_priGroup__C)
                  20023bec    00000004     release_pem4.oem4 (.const:ti_sysbios_family_arm_m3_Hwi_swiDisable__C)
                  20023bf0    00000004     release_pem4.oem4 (.const:ti_sysbios_family_arm_m3_Hwi_swiRestore__C)
                  20023bf4    00000004     release_pem4.oem4 (.const:ti_sysbios_family_arm_m3_TaskSupport_stackAlignment__C)
                  20023bf8    00000004     release_pem4.oem4 (.const:ti_sysbios_family_arm_m3_Timer_E_cannotSupport__C)
                  20023bfc    00000004     release_pem4.oem4 (.const:ti_sysbios_family_arm_m3_Timer_startupNeeded__C)
                  20023c00    00000004     release_pem4.oem4 (.const:ti_sysbios_gates_GateMutex_Instance_State_sem__O)
                  20023c04    00000004     release_pem4.oem4 (.const:ti_sysbios_heaps_HeapMem_E_memory__C)
                  20023c08    00000004     release_pem4.oem4 (.const:ti_sysbios_heaps_HeapMem_Module__gateObj__C)
                  20023c0c    00000004     release_pem4.oem4 (.const:ti_sysbios_heaps_HeapMem_Object__count__C)
                  20023c10    00000004     release_pem4.oem4 (.const:ti_sysbios_heaps_HeapMem_primaryHeapBaseAddr__C)
                  20023c14    00000004     release_pem4.oem4 (.const:ti_sysbios_heaps_HeapMem_primaryHeapEndAddr__C)
                  20023c18    00000004     release_pem4.oem4 (.const:ti_sysbios_heaps_HeapMem_reqAlign__C)
                  20023c1c    00000004     release_pem4.oem4 (.const:ti_sysbios_knl_Clock_Module_State_clockQ__O)
                  20023c20    00000004     release_pem4.oem4 (.const:ti_sysbios_knl_Clock_tickPeriod__C)
                  20023c24    00000004     release_pem4.oem4 (.const:ti_sysbios_knl_Mailbox_Instance_State_freeQue__O)
                  20023c28    00000004     release_pem4.oem4 (.const:ti_sysbios_knl_Mailbox_Object__count__C)
                  20023c2c    00000004     release_pem4.oem4 (.const:ti_sysbios_knl_Mailbox_maxTypeAlign__C)
                  20023c30    00000004     release_pem4.oem4 (.const:ti_sysbios_knl_Semaphore_Instance_State_pendQ__O)
                  20023c34    00000004     release_pem4.oem4 (.const:ti_sysbios_knl_Swi_Object__count__C)
                  20023c38    00000004     release_pem4.oem4 (.const:ti_sysbios_knl_Task_Module_State_inactiveQ__O)
                  20023c3c    00000004     release_pem4.oem4 (.const:ti_sysbios_knl_Task_Object__count__C)
                  20023c40    00000004     release_pem4.oem4 (.const:ti_sysbios_knl_Task_Object__heap__C)
                  20023c44    00000004     release_pem4.oem4 (.const:ti_sysbios_knl_Task_allBlockedFunc__C)
                  20023c48    00000004     release_pem4.oem4 (.const:ti_sysbios_knl_Task_defaultStackHeap__C)
                  20023c4c    00000004     release_pem4.oem4 (.const:ti_sysbios_knl_Task_defaultStackSize__C)
                  20023c50    00000004     release_pem4.oem4 (.const:ti_sysbios_knl_Task_numConstructedTasks__C)
                  20023c54    00000004     release_pem4.oem4 (.const:xdc_runtime_Error_E_memory__C)
                  20023c58    00000004     release_pem4.oem4 (.const:xdc_runtime_Error_policyFxn__C)
                  20023c5c    00000004     release_pem4.oem4 (.const:xdc_runtime_IGateProvider_Interface__BASE__C)
                  20023c60    00000004     release_pem4.oem4 (.const:xdc_runtime_IHeap_Interface__BASE__C)
                  20023c64    00000004     release_pem4.oem4 (.const:xdc_runtime_IModule_Interface__BASE__C)
                  20023c68    00000004     release_pem4.oem4 (.const:xdc_runtime_Memory_defaultHeapInstance__C)
                  20023c6c    00000004     release_pem4.oem4 (.const:xdc_runtime_Startup_execImpl__C)
                  20023c70    00000004     release_pem4.oem4 (.const:xdc_runtime_Startup_maxPasses__C)
                  20023c74    00000004     release_pem4.oem4 (.const:xdc_runtime_Startup_sfxnRts__C)
                  20023c78    00000004     release_pem4.oem4 (.const:xdc_runtime_Startup_sfxnTab__C)
                  20023c7c    00000004     release_pem4.oem4 (.const:xdc_runtime_SysCallback_abortFxn__C)
                  20023c80    00000004     release_pem4.oem4 (.const:xdc_runtime_SysCallback_exitFxn__C)
                  20023c84    00000004     release_pem4.oem4 (.const:xdc_runtime_System_Module__gateObj__C)
                  20023c88    00000004     release_pem4.oem4 (.const:xdc_runtime_System_abortFxn__C)
                  20023c8c    00000004     release_pem4.oem4 (.const:xdc_runtime_System_exitFxn__C)
                  20023c90    00000004     release_pem4.oem4 (.const:xdc_runtime_System_maxAtexitHandlers__C)
                  20023c94    00000002     release_pem4.oem4 (.const:ti_sysbios_heaps_HeapMem_Module__id__C)
                  20023c96    00000002     release_pem4.oem4 (.const:xdc_runtime_Memory_Module__id__C)
                  20023c98    00000001     release_pem4.oem4 (.const:xdc_runtime_Error_policy__C)

.data      0    20023c9c    00000e41     UNINITIALIZED
                  20023c9c    00000190     PEMS.obj (.data:s_text)
                  20023e2c    0000016c     drivers_cc32xx.aem4 : PowerCC32XX.oem4 (.data:PowerCC32XX_module)
                  20023f98    000000f8     ti_drivers_config.obj (.data:parkInfo)
                  20024090    000000f0     rtsv7M4_T_le_eabi.lib : defs.c.obj (.data:_ftable)
                  20024180    000000c4     IRBlaster.obj (.data:ARRAY_OFF)
                  20024244    000000c4     IRBlaster.obj (.data:ARRAY_ON)
                  20024308    000000b8     httpclient_release.a : httpclient.oem4 (.data:headerFieldStr)
                  200243c0    00000088     sysbios.aem4 : BIOS.obj (.data:$O1$$)
                  20024448    00000080     release_pem4.oem4 (.data:ti_sysbios_knl_Swi_Module_State_0_readyQ__A)
                  200244c8    00000080     release_pem4.oem4 (.data:ti_sysbios_knl_Task_Module_State_0_readyQ__A)
                  20024548    00000078     rtsv7M4_T_le_eabi.lib : host_device.c.obj (.data:_device)
                  200245c0    00000058     slnetifwifi.a : slnetifwifi.obj (.data:SlNetIfConfigWifi)
                  20024618    00000054     release_pem4.oem4 (.data:ti_sysbios_gates_GateMutex_Object__table__V)
                  2002466c    00000050     httpclient_release.a : httpclient.oem4 (.data:HeadersHashTable)
                  200246bc    00000050     rtsv7M4_T_le_eabi.lib : host_device.c.obj (.data:_stream)
                  2002470c    0000004c     release_pem4.oem4 (.data:ti_sysbios_knl_Task_Object__table__V)
                  20024758    00000044     release_pem4.oem4 (.data:ti_sysbios_knl_Task_Module__state__V)
                  2002479c    00000034     release_pem4.oem4 (.data:ti_sysbios_family_arm_m3_Hwi_Module__state__V)
                  200247d0    00000030     ti_drivers_config.obj (.data:gpioCallbackFunctions)
                  20024800    00000030     ti_drivers_config.obj (.data:gpioPinConfigs)
                  20024830    00000030     release_pem4.oem4 (.data:ti_sysbios_family_arm_m3_Timer_Object__table__V)
                  20024860    00000030     release_pem4.oem4 (.data:ti_sysbios_knl_Swi_Object__table__V)
                  20024890    0000002c     release_pem4.oem4 (.data:ti_sysbios_knl_Clock_Module__state__V)
                  200248bc    00000024     simplelink.a : eventreg.obj (.data:g_LibsEvents)
                  200248e0    00000024                  : eventreg.obj (.data:g_UserEvents)
                  20024904    00000024     release_pem4.oem4 (.data:ti_sysbios_BIOS_Module__state__V)
                  20024928    00000023     PEMS.obj (.data)
                  2002494b    00000001     drivers_cc32xx.aem4 : Capture.oem4 (.data)
                  2002494c    00000020     release_pem4.oem4 (.data:xdc_runtime_Error_IgnoreBlock)
                  2002496c    0000001c     httpclient_release.a : httpclient.oem4 (.data)
                  20024988    0000001c     release_pem4.oem4 (.data:ti_sysbios_knl_Swi_Module__state__V)
                  200249a4    00000018     release_pem4.oem4 (.data:ti_sysbios_family_arm_m3_Hwi_Object__table__V)
                  200249bc    00000018     release_pem4.oem4 (.data:ti_sysbios_heaps_HeapMem_Object__table__V)
                  200249d4    00000010     httpclient_release.a : httpclient.oem4 (.data:proxyAddr)
                  200249e4    00000010     rtsv7M4_T_le_eabi.lib : defs.c.obj (.data)
                  200249f4    00000010     release_pem4.oem4 (.data:ti_sysbios_family_arm_cc32xx_Seconds_Module__state__V)
                  20024a04    0000000c     rtsv7M4_T_le_eabi.lib : exit.c.obj (.data:$O1$$)
                  20024a10    0000000c     simplelink.a : driver.obj (.data)
                  20024a1c    0000000c     release_pem4.oem4 (.data:ti_sysbios_family_arm_m3_Timer_Module__state__V)
                  20024a28    00000009     drivers_cc32xx.aem4 : GPIOCC32XX.oem4 (.data)
                  20024a31    00000009     MHZ16.obj (.data:readCO2)
                  20024a3a    00000002     release_pem4.oem4 (.data:ti_sysbios_family_arm_m3_Hwi_Module_State_0_excActive__A)
                  20024a3c    00000008     rtsv7M4_T_le_eabi.lib : _lock.c.obj (.data:$O1$$)
                  20024a44    00000008     dht22.obj (.data)
                  20024a4c    00000008     drivers_cc32xx.aem4 : UDMACC32XX.oem4 (.data)
                  20024a54    00000008     platform.obj (.data)
                  20024a5c    00000008     release_pem4.oem4 (.data:ti_sysbios_family_arm_m3_Hwi_Module__root__V)
                  20024a64    00000008     release_pem4.oem4 (.data:ti_sysbios_gates_GateHwi_Module__root__V)
                  20024a6c    00000008     release_pem4.oem4 (.data:ti_sysbios_gates_GateMutex_Module__root__V)
                  20024a74    00000008     release_pem4.oem4 (.data:ti_sysbios_heaps_HeapMem_Module__root__V)
                  20024a7c    00000008     release_pem4.oem4 (.data:ti_sysbios_knl_Clock_Module__root__V)
                  20024a84    00000008     release_pem4.oem4 (.data:ti_sysbios_knl_Queue_Module__root__V)
                  20024a8c    00000008     release_pem4.oem4 (.data:ti_sysbios_knl_Semaphore_Module__root__V)
                  20024a94    00000008     release_pem4.oem4 (.data:ti_sysbios_knl_Task_Module__root__V)
                  20024a9c    00000008     release_pem4.oem4 (.data:xdc_runtime_Startup_Module__state__V)
                  20024aa4    00000008     release_pem4.oem4 (.data:xdc_runtime_System_Module_State_0_atexitHandlers__A)
                  20024aac    00000008     release_pem4.oem4 (.data:xdc_runtime_System_Module__state__V)
                  20024ab4    00000004     rtsv7M4_T_le_eabi.lib : stkdepth_vars.c.obj (.data)
                  20024ab8    00000004     simplelink.a : cc_pal.obj (.data)
                  20024abc    00000004     slnetsock_release.a : slnetif.oem4 (.data)
                  20024ac0    00000004     release_pem4.oem4 (.data:ti_sysbios_family_arm_m3_Hwi_Module_State_0_excContext__A)
                  20024ac4    00000004     release_pem4.oem4 (.data:ti_sysbios_family_arm_m3_Hwi_Module_State_0_excStack__A)
                  20024ac8    00000004     release_pem4.oem4 (.data:ti_sysbios_gates_GateHwi_Object__table__V)
                  20024acc    00000004     release_pem4.oem4 (.data:ti_sysbios_knl_Task_Module_State_0_idleTask__A)
                  20024ad0    00000004     release_pem4.oem4 (.data:ti_sysbios_rts_ti_ReentSupport_Module__state__V)
                  20024ad4    00000004     release_pem4.oem4 (.data:xdc_runtime_Memory_Module__state__V)
                  20024ad8    00000001     drivers_cc32xx.aem4 : PWM.oem4 (.data)
                  20024ad9    00000001                         : SPI.oem4 (.data)
                  20024ada    00000001                         : Timer.oem4 (.data)
                  20024adb    00000001                         : UART.oem4 (.data)
                  20024adc    00000001     slnetsock_release.a : slnetsock.oem4 (.data)

.cinit     0    20024ae0    000004a8     
                  20024ae0    0000047f     (.cinit..data.load) [load image, compression = lzss]
                  20024f5f    00000001     --HOLE-- [fill = 0]
                  20024f60    0000000c     (__TI_handler_table)
                  20024f6c    00000004     --HOLE-- [fill = 0]
                  20024f70    00000008     (.cinit..bss.load) [load image, compression = zero_init]
                  20024f78    00000010     (__TI_cinit_table)

.init_array 
*          0    20004000    00000000     UNINITIALIZED

.priheap   0    200194f8    00008000     UNINITIALIZED
                  200194f8    00008000     --HOLE--

.bootVecs 
*          0    00000000    00000008     DSECT
                  00000000    00000008     boot.aem4 : boot.oem4 (.bootVecs)

.resetVecs 
*          0    20004000    0000003c     
                  20004000    0000003c     release_pem4.oem4 (.resetVecs)

xdc.meta   0    00000000    0000011d     COPY SECTION
                  00000000    0000011d     release_pem4.oem4 (xdc.meta)

xdc.noload 
*          0    00000000    00000000     COPY SECTION

MODULE SUMMARY

       Module                       code    ro data   rw data
       ------                       ----    -------   -------
    .\
       PEMS.obj                     3120    0         517    
       httpget.obj                  1692    150       0      
       dht22.obj                    884     0         345    
       IRBlaster.obj                608     0         420    
       platform.obj                 862     12        12     
       lcd.obj                      508     0         0      
       MHZ16.obj                    270     0         61     
       main_tirtos.obj              100     0         0      
       main_post.obj                0       0         12     
    +--+----------------------------+-------+---------+---------+
       Total:                       8044    162       1367   
                                                             
    .\syscfg\
       ti_drivers_config.obj        34      322       1800   
    +--+----------------------------+-------+---------+---------+
       Total:                       34      322       1800   
                                                             
    C:\Users\diego\Documents\UNI\MICRO_2\Lab\WIFI\tirtos_builds_CC3220S_LAUNCHXL_release_ccs_3_30_01_02\Debug\configPkg\package\cfg\
       release_pem4.oem4            1670    1051      3038   
    +--+----------------------------+-------+---------+---------+
       Total:                       1670    1051      3038   
                                                             
    C:/ti/simplelink_cc32xx_sdk_3_30_01_02/kernel/tirtos/packages/ti/dpl/lib/dpl_cc32xx.aem4
       PowerCC32XX_tirtos.oem4      430     0         0      
       SemaphoreP_tirtos.oem4       146     0         0      
       ClockP_tirtos.oem4           130     0         4      
       HwiP_tirtos.oem4             108     0         0      
    +--+----------------------------+-------+---------+---------+
       Total:                       814     0         4      
                                                             
    C:/ti/simplelink_cc32xx_sdk_3_30_01_02/source/ti/devices/cc32xx/driverlib/ccs/Release/driverlib.a
       prcm.obj                     1772    168       0      
       pin.obj                      280     256       0      
       timer.obj                    374     0         0      
       flash.obj                    72      0         0      
       uart.obj                     48      0         0      
       udma.obj                     24      0         0      
       utils.obj                    6       0         0      
    +--+----------------------------+-------+---------+---------+
       Total:                       2576    424       0      
                                                             
    C:/ti/simplelink_cc32xx_sdk_3_30_01_02/source/ti/drivers/lib/drivers_cc32xx.aem4
       UARTCC32XX.oem4              3450    116       0      
       PowerCC32XX.oem4             2372    0         664    
       SPICC32XXDMA.oem4            2118    68        0      
       PWMTimerCC32XX.oem4          1732    108       0      
       GPIOCC32XX.oem4              1248    103       65     
       TimerCC32XX.oem4             1130    32        4      
       CaptureCC32XX.oem4           894     24        8      
       UDMACC32XX.oem4              270     0         28     
       UART.oem4                    186     36        1      
       PWM.oem4                     182     24        1      
       SPI.oem4                     172     32        1      
       Timer.oem4                   188     12        1      
       RingBuf.oem4                 198     0         0      
       Capture.oem4                 178     12        1      
       PowerCC32XX_asm.oem4         150     0         0      
       List.oem4                    76      0         0      
    +--+----------------------------+-------+---------+---------+
       Total:                       14544   567       774    
                                                             
    C:/ti/simplelink_cc32xx_sdk_3_30_01_02/source/ti/drivers/net/wifi/ccs/rtos/simplelink.a
       driver.obj                   12572   280       1077   
       sl_socket.obj                7018    84        12     
       netapp.obj                   2086    12        0      
       device.obj                   1522    56        12     
       cc_pal.obj                   1052    40        4      
       fs.obj                       924     32        0      
       eventreg.obj                 880     0         72     
       wlan.obj                     896     12        0      
       spawn.obj                    264     0         40     
       netcfg.obj                   192     4         0      
       netutil.obj                  180     0         0      
       flowcont.obj                 40      0         0      
    +--+----------------------------+-------+---------+---------+
       Total:                       27626   520       1217   
                                                             
    C:/ti/simplelink_cc32xx_sdk_3_30_01_02/source/ti/drivers/net/wifi/slnetif/ccs/Release/slnetifwifi.a
       slnetifwifi.obj              1458    36        88     
    +--+----------------------------+-------+---------+---------+
       Total:                       1458    36        88     
                                                             
    C:/ti/simplelink_cc32xx_sdk_3_30_01_02/source/ti/net/http/lib/ccs/m4/httpclient_release.a
       httpclient.oem4              7164    690       308    
    +--+----------------------------+-------+---------+---------+
       Total:                       7164    690       308    
                                                             
    C:/ti/simplelink_cc32xx_sdk_3_30_01_02/source/ti/net/lib/ccs/m4/slnetsock_release.a
       slnetsock.oem4               1096    0         157    
       slnetutils.oem4              726     0         0      
       slnetif.oem4                 448     0         4      
    +--+----------------------------+-------+---------+---------+
       Total:                       2270    0         161    
                                                             
    C:\Users\diego\Documents\UNI\MICRO_2\Lab\WIFI\tirtos_builds_CC3220S_LAUNCHXL_release_ccs_3_30_01_02\src\sysbios\sysbios.aem4
       BIOS.obj                     9432    0         136    
       m3_Hwi_asm.obj               270     0         0      
       m3_TaskSupport_asm.obj       108     0         0      
       m3_Hwi_asm_switch.obj        102     0         0      
    +--+----------------------------+-------+---------+---------+
       Total:                       9912    0         136    
                                                             
    C:\ti\ccs910\ccs\tools\compiler\ti-cgt-arm_18.12.3.LTS\lib\rtsv7M4_T_le_eabi.lib
       _printfi.c.obj               4835    0         0      
       fd_add_t2.asm.obj            438     0         0      
       defs.c.obj                   0       0         416    
       trgmsg.c.obj                 108     0         288    
       fd_div_t2.asm.obj            310     0         0      
       fputs.c.obj                  276     0         0      
       strtoul.c.obj                272     0         0      
       fd_cmp_t2.asm.obj            268     0         0      
       ctype.c.obj                  0       257       0      
       fd_mul_t2.asm.obj            252     0         0      
       setvbuf.c.obj                220     0         0      
       s_scalbn.c.obj               208     0         0      
       host_device.c.obj            0       0         200    
       memcpy_t2.asm.obj            156     0         0      
       ull_div_t2.asm.obj           150     0         0      
       fputc.c.obj                  140     0         0      
       vsnprintf.c.obj              136     0         0      
       memset_t2.asm.obj            122     0         0      
       fclose.c.obj                 116     0         0      
       getdevice.c.obj              116     0         0      
       printf.c.obj                 112     0         0      
       hostrename.c.obj             108     0         0      
       copy_decompress_lzss.c.obj   104     0         0      
       hostlseek.c.obj              104     0         0      
       hostopen.c.obj               96      0         8      
       fseek.c.obj                  100     0         0      
       _io_perm.c.obj               98      0         0      
       sprintf.c.obj                98      0         0      
       close.c.obj                  92      0         0      
       s_frexp.c.obj                92      0         0      
       hostread.c.obj               88      0         0      
       hostwrite.c.obj              88      0         0      
       ltoa.c.obj                   84      0         0      
       atoi.c.obj                   76      0         0      
       cpy_tbl.c.obj                76      0         0      
       fflush.c.obj                 76      0         0      
       fd_toi_t2.asm.obj            72      0         0      
       fd_tou_t2.asm.obj            68      0         0      
       hostclose.c.obj              68      0         0      
       hostunlink.c.obj             68      0         0      
       strncpy.c.obj                54      0         0      
       fopen.c.obj                  52      0         0      
       strstr.c.obj                 52      0         0      
       i_tofd_t2.asm.obj            46      0         0      
       strncmp.c.obj                44      0         0      
       unlink.c.obj                 44      0         0      
       lseek.c.obj                  40      0         0      
       write.c.obj                  40      0         0      
       _lock.c.obj                  26      0         8      
       memchr.c.obj                 32      0         0      
       u_tofd_t2.asm.obj            32      0         0      
       strcat.c.obj                 30      0         0      
       memccpy.c.obj                28      0         0      
       args_main.c.obj              24      0         0      
       ll_mul_t2.asm.obj            24      0         0      
       strcmp.c.obj                 24      0         0      
       strchr.c.obj                 22      0         0      
       strcpy.c.obj                 20      0         0      
       strlen.c.obj                 20      0         0      
       wcslen.c.obj                 18      0         0      
       copy_decompress_none.c.obj   14      0         0      
       copy_zero_init.c.obj         12      0         0      
       exit.c.obj                   0       0         12     
       s_copysign.c.obj             12      0         0      
       stkdepth_vars.c.obj          0       0         4      
       div0.asm.obj                 2       0         0      
    +--+----------------------------+-------+---------+---------+
       Total:                       10603   257       936    
                                                             
    C:\ti\simplelink_cc32xx_sdk_3_30_01_02\kernel\tirtos\packages\ti\targets\arm\rtsarm\lib\auto_init.aem4
       auto_init.oem4               160     0         0      
    +--+----------------------------+-------+---------+---------+
       Total:                       160     0         0      
                                                             
    C:\ti\simplelink_cc32xx_sdk_3_30_01_02\kernel\tirtos\packages\ti\targets\arm\rtsarm\lib\boot.aem4
       boot.oem4                    68      0         0      
    +--+----------------------------+-------+---------+---------+
       Total:                       68      0         0      
                                                             
       Stack:                       0       0         1024   
       Linker Generated:            0       1187      0      
    +--+----------------------------+-------+---------+---------+
       Grand Total:                 86943   5216      10853  


LINKER GENERATED COPY TABLES

__TI_cinit_table @ 20024f78 records: 2, size/record: 8, table size: 16
	.data: load addr=20024ae0, load size=0000047f bytes, run addr=20023c9c, run size=00000e41 bytes, compression=lzss
	.bss: load addr=20024f70, load size=00000008 bytes, run addr=20021800, run size=00001518 bytes, compression=zero_init


LINKER GENERATED HANDLER TABLE

__TI_handler_table @ 20024f60 records: 3, size/record: 4, table size: 12
	index: 0, handler: __TI_zero_init
	index: 1, handler: __TI_decompress_lzss
	index: 2, handler: __TI_decompress_none


GLOBAL SYMBOLS: SORTED ALPHABETICALLY BY Name 

address   name                                                            
-------   ----                                                            
20024180  ARRAY_OFF                                                       
20024244  ARRAY_ON                                                        
20018ed7  Board_init                                                      
20004a8f  Board_initHook                                                  
20024942  C                                                               
2001727b  C$$IO$$                                                         
2002493e  CO                                                              
20022b6c  CO2params                                                       
20022cdc  CO2uart                                                         
200174ad  COMENZAR                                                        
20013929  CaptureCC32XX_close                                             
20016bc3  CaptureCC32XX_control                                           
20023840  CaptureCC32XX_fxnTable                                          
20008d8b  CaptureCC32XX_init                                              
2000e7c5  CaptureCC32XX_open                                              
20012fe1  CaptureCC32XX_start                                             
20014471  CaptureCC32XX_stop                                              
20018ee9  Capture_Params_init                                             
200192d5  Capture_close                                                   
20023a58  Capture_config                                                  
20023b5e  Capture_count                                                   
200160ad  Capture_init                                                    
20016609  Capture_open                                                    
200192df  Capture_start                                                   
200192e9  Capture_stop                                                    
200192f3  ClockP_Params_init                                              
20014fd5  ClockP_create                                                   
2001910f  ClockP_delete                                                   
2000d33d  ClockP_getCpuFreq                                               
2001911d  ClockP_getSystemTickPeriod                                      
20019231  ClockP_getSystemTicks                                           
2000e40d  ClockP_setTimeout                                               
2000f105  ClockP_start                                                    
2000f68d  ClockP_stop                                                     
20022ce0  ClockP_tickPeriod                                               
2001305d  Connect                                                         
20023b5f  CryptoCC32XX_count                                              
200174e1  CtoF                                                            
20022d10  D4                                                              
20022d11  D5                                                              
20022d12  D6                                                              
20022d13  D7                                                              
20022c5c  DHT_Data                                                        
20017fd5  DHT_begin                                                       
20010309  DHT_read                                                        
20009891  DHT_translateData                                               
20022c68  DeviceCB                                                        
20022d14  E                                                               
20015a35  FlashDisable                                                    
20023978  GPIOCC32XX_config                                               
20015439  GPIO_enableInt                                                  
200132cd  GPIO_hwiIntFxn                                                  
2000f505  GPIO_init                                                       
200170c5  GPIO_read                                                       
200144cd  GPIO_setCallback                                                
20009159  GPIO_setConfig                                                  
20014815  GPIO_write                                                      
20022b18  GlobalLockObj                                                   
20024941  H                                                               
00008000  HEAPSIZE                                                        
200160f1  HOSTclose                                                       
20013cf5  HOSTlseek                                                       
20014291  HOSTopen                                                        
2001486d  HOSTread                                                        
20013995  HOSTrename                                                      
20016135  HOSTunlink                                                      
200148c5  HOSTwrite                                                       
2000edc1  HTTPClient_connect                                              
20008f79  HTTPClient_connect2                                             
20016179  HTTPClient_create                                               
20017b83  HTTPClient_destroy                                              
200136f5  HTTPClient_disconnect                                           
20013a01  HTTPClient_getHeader                                            
2000fd49  HTTPClient_readResponseBody                                     
20011759  HTTPClient_sendRequest                                          
2000d451  HTTPClient_setHeader                                            
20024984  HTTP_METHOD_CONNECT                                             
20024980  HTTP_METHOD_DELETE                                              
2002496c  HTTP_METHOD_GET                                                 
20024974  HTTP_METHOD_HEAD                                                
20024978  HTTP_METHOD_OPTIONS                                             
20024970  HTTP_METHOD_POST                                                
2002497c  HTTP_METHOD_PUT                                                 
2002493c  Hum                                                             
20018ef9  HwiP_Params_init                                                
2000fbcd  HwiP_clearInterrupt                                             
20016689  HwiP_create                                                     
20019129  HwiP_delete                                                     
2001161d  HwiP_disable                                                    
20011c0d  HwiP_disableInterrupt                                           
2001223d  HwiP_enableInterrupt                                            
20019459  HwiP_restore                                                    
20011261  IR_Init                                                         
20018209  List_put                                                        
2001822f  List_remove                                                     
20022c74  Msg                                                             
20017af9  Mutex_create_handle                                             
20019135  NwpMaskInterrupt                                                
2000f755  NwpPowerOff                                                     
20017bb1  NwpPowerOn                                                      
20015025  NwpRegisterInterruptHandler                                     
20019141  NwpUnMaskInterrupt                                              
20015485  NwpWaitForShutDownInd                                           
2002324c  OpcodeTranslateTable                                            
20005eb5  PRCMCC3200MCUInit                                               
20018c71  PRCMHIBRegRead                                                  
20018c87  PRCMHIBRegWrite                                                 
20015a7d  PRCMLPDSEnter                                                   
200170fd  PRCMLPDSEnterKeepDebugIf                                        
200161bd  PRCMLPDSRestoreInfoSet                                          
20017ffd  PRCMPeripheralClkDisable                                        
20015ac5  PRCMPeripheralClkEnable                                         
20010b49  PRCMPeripheralClockGet                                          
2001491d  PRCMPeripheralReset                                             
200142f1  PRCMSysResetCauseGet                                            
200122cd  PWMTimerCC32XX_close                                            
200193bb  PWMTimerCC32XX_control                                          
200234dc  PWMTimerCC32XX_fxnTable                                         
20009db7  PWMTimerCC32XX_init                                             
2000e31d  PWMTimerCC32XX_open                                             
2000fe01  PWMTimerCC32XX_setDuty                                          
2000b769  PWMTimerCC32XX_setDutyAndPeriod                                 
200117f1  PWMTimerCC32XX_setPeriod                                        
20013d5d  PWMTimerCC32XX_start                                            
2000f5c9  PWMTimerCC32XX_stop                                             
20018d25  PWM_Params_init                                                 
20023a64  PWM_config                                                      
20023b60  PWM_count                                                       
20023858  PWM_defaultParams                                               
20016201  PWM_init                                                        
200166c9  PWM_open                                                        
200192fd  PWM_setDuty                                                     
20019307  PWM_start                                                       
20019311  PWM_stop                                                        
20012355  PinConfigSet                                                    
20017515  PinModeGet                                                      
20016709  PinModeSet                                                      
2001883d  PinToPadGet                                                     
2002330c  PowerCC32XX_config                                              
20010bf1  PowerCC32XX_configureWakeup                                     
2002264c  PowerCC32XX_contextSave                                         
20016245  PowerCC32XX_enterLPDS                                           
20017bdd  PowerCC32XX_getParkState                                        
20018025  PowerCC32XX_initPolicy                                          
20023e2c  PowerCC32XX_module                                              
200154d1  PowerCC32XX_parkPin                                             
20018255  PowerCC32XX_reset                                               
20017549  PowerCC32XX_restoreParkState                                    
200177f3  PowerCC32XX_restoreParkedPin                                    
20014edd  PowerCC32XX_resumeLPDS                                          
20014039  PowerCC32XX_setParkState                                        
2000afb9  PowerCC32XX_sleepPolicy                                         
2001914d  Power_getConstraintMask                                         
20018d39  Power_getDependencyCount                                        
20018a49  Power_idleFunc                                                  
200129b9  Power_init                                                      
2001804d  Power_registerNotify                                            
20015b0d  Power_releaseConstraint                                         
20014975  Power_releaseDependency                                         
20016c09  Power_setConstraint                                             
20012ddd  Power_setDependency                                             
2000bd9d  Power_sleep                                                     
20018511  Power_unregisterNotify                                          
20024943  R1                                                              
20024944  R2                                                              
20018e2d  RingBuf_construct                                               
20016749  RingBuf_get                                                     
20019089  RingBuf_isFull                                                  
20018531  RingBuf_peek                                                    
20016021  RingBuf_put                                                     
20022d15  Rs                                                              
20022d16  RxIrqCnt                                                        
UNDEFED   SHT$$INIT_ARRAY$$Base                                           
UNDEFED   SHT$$INIT_ARRAY$$Limit                                          
2000ea61  SPICC32XXDMA_close                                              
20019439  SPICC32XXDMA_control                                            
20023870  SPICC32XXDMA_fxnTable                                           
2001270d  SPICC32XXDMA_init                                               
2000abbd  SPICC32XXDMA_open                                               
2000932d  SPICC32XXDMA_transfer                                           
2000e139  SPICC32XXDMA_transferCancel                                     
20018d4d  SPI_Params_init                                                 
2001931b  SPI_close                                                       
20023a70  SPI_config                                                      
20023b61  SPI_count                                                       
20023660  SPI_defaultParams                                               
20016289  SPI_init                                                        
20016789  SPI_open                                                        
20019325  SPI_transfer                                                    
200193e9  SemaphoreP_Params_init                                          
20016c45  SemaphoreP_create                                               
20017c09  SemaphoreP_createBinary                                         
20019159  SemaphoreP_delete                                               
20018e3f  SemaphoreP_pend                                                 
2001292d  SemaphoreP_post                                                 
20011a51  Semaphore_pend_handle                                           
2001932f  SimpleLinkFatalErrorEventHandler                                
20019339  SimpleLinkGeneralEventHandler                                   
20019165  SimpleLinkHttpServerEventHandler                                
2000ae69  SimpleLinkNetAppEventHandler                                    
20019171  SimpleLinkNetAppRequestEventHandler                             
20019343  SimpleLinkNetAppRequestMemFreeEventHandler                      
2001934d  SimpleLinkSockEventHandler                                      
20019357  SimpleLinkWlanEventHandler                                      
200245c0  SlNetIfConfigWifi                                               
20018551  SlNetIfWifi_accept                                              
200186f1  SlNetIfWifi_bind                                                
20018e51  SlNetIfWifi_close                                               
2001870f  SlNetIfWifi_connect                                             
2001551d  SlNetIfWifi_getConnectionStatus                                 
20017369  SlNetIfWifi_getHostByName                                       
20016f2d  SlNetIfWifi_getIPAddr                                           
2001068d  SlNetIfWifi_getSockOpt                                          
200189f9  SlNetIfWifi_listen                                              
2000dd65  SlNetIfWifi_loadSecObj                                          
20017c35  SlNetIfWifi_recv                                                
20017135  SlNetIfWifi_recvFrom                                            
2001739f  SlNetIfWifi_select                                              
20017c61  SlNetIfWifi_send                                                
2001716d  SlNetIfWifi_sendTo                                              
20014411  SlNetIfWifi_setSockOpt                                          
200171a5  SlNetIfWifi_socket                                              
20012a3d  SlNetIfWifi_sockstartSec                                        
2000e6dd  SlNetIf_add                                                     
20018279  SlNetIf_getConnectionStatus                                     
20018075  SlNetIf_getIfByID                                               
20012d55  SlNetIf_init                                                    
20015075  SlNetIf_queryIf                                                 
20016b09  SlNetSock_close                                                 
20015b55  SlNetSock_connect                                               
20011ca5  SlNetSock_create                                                
2001829d  SlNetSock_getIfID                                               
20015b9d  SlNetSock_init                                                  
200149cd  SlNetSock_recv                                                  
20018f09  SlNetSock_secAttribCreate                                       
2001809d  SlNetSock_secAttribDelete                                       
200167c9  SlNetSock_secAttribSet                                          
20014a25  SlNetSock_send                                                  
200155b5  SlNetSock_startSec                                              
20012ac1  SlNetUtil_getHostByName                                         
20017215  SlNetUtil_htonl                                                 
2001757d  SlNetUtil_htons                                                 
20017efd  SlNetUtil_inetPton                                              
20012e5d  SlNetUtil_init                                                  
20017215  SlNetUtil_ntohl                                                 
2001757d  SlNetUtil_ntohs                                                 
20024940  T                                                               
20022d17  TEMP                                                            
2002493a  Temp                                                            
200150c5  TimerCC32XX_allocateTimerResource                               
20016f67  TimerCC32XX_close                                               
2001943f  TimerCC32XX_control                                             
200175b1  TimerCC32XX_freeTimerResource                                   
200236a0  TimerCC32XX_fxnTable                                            
20018a61  TimerCC32XX_getCount                                            
2000c143  TimerCC32XX_init                                                
2000c3a9  TimerCC32XX_open                                                
200123dd  TimerCC32XX_setPeriod                                           
20013345  TimerCC32XX_start                                               
20014c39  TimerCC32XX_stop                                                
20017825  TimerControlEvent                                               
2001740b  TimerControlStall                                               
2001872d  TimerDisable                                                    
2001874b  TimerEnable                                                     
200193f1  TimerGetCurrentTimestamp                                        
20018e63  TimerIntClear                                                   
20018a79  TimerIntDisable                                                 
20018a91  TimerIntEnable                                                  
20017f27  TimerLoadSet                                                    
20017f51  TimerPrescaleSet                                                
20018859  TimerValueGet                                                   
200184ed  TimerValueSet                                                   
20018f19  Timer_Params_init                                               
20019361  Timer_close                                                     
20023888  Timer_config                                                    
20023b62  Timer_count                                                     
20016311  Timer_init                                                      
20016809  Timer_open                                                      
2001936b  Timer_setPeriod                                                 
20019375  Timer_start                                                     
2001937f  Timer_stop                                                      
20018aa9  UARTBusy                                                        
2000c841  UARTCC32XX_close                                                
2000e22b  UARTCC32XX_control                                              
2002348c  UARTCC32XX_fxnTable                                             
2000c83f  UARTCC32XX_init                                                 
20007571  UARTCC32XX_open                                                 
20016849  UARTCC32XX_read                                                 
20017441  UARTCC32XX_readCancel                                           
2000fc8d  UARTCC32XX_readPolling                                          
2000f371  UARTCC32XX_write                                                
20013fd1  UARTCC32XX_writeCancel                                          
200141cd  UARTCC32XX_writePolling                                         
20018ac1  UARTIntEnable                                                   
20010899  UART_CO2_init                                                   
20018ad9  UART_Params_init                                                
20023a7c  UART_config                                                     
20019389  UART_control                                                    
20023b63  UART_count                                                      
20023500  UART_defaultParams                                              
20016355  UART_init                                                       
20016889  UART_open                                                       
20019393  UART_read                                                       
2001939d  UART_write                                                      
200175e5  UDMACC32XX_close                                                
20023ae4  UDMACC32XX_config                                               
200168c9  UDMACC32XX_init                                                 
200130d9  UDMACC32XX_open                                                 
20016399  UNO                                                             
20019445  UtilsDelay                                                      
20017619  ZERO                                                            
200232bc  _SlActionLookupTable                                            
2000d661  _SlDeviceEventHandler                                           
20015be5  _SlDeviceFatalErrorEvtHdlr                                      
20015c2d  _SlDeviceGeneralEvtHdlr                                         
2000eb39  _SlDeviceHandleAsync_InitComplete                               
20011e59  _SlDeviceHandleAsync_Stop                                       
20013ad9  _SlDeviceHandleResetRequestInternally                           
2001917d  _SlDeviceResetRequestInitCompletedCB                            
2000d765  _SlDrvCmdOp                                                     
20013765  _SlDrvCmdSend_noLock                                            
20015165  _SlDrvCmdSend_noWait                                            
20007cd5  _SlDrvDataReadOp                                                
2000837d  _SlDrvDataWriteOp                                               
20018f29  _SlDrvDispatchHttpServerEvents                                  
20018f39  _SlDrvDispatchNetAppRequestEvents                               
2000b9e9  _SlDrvDriverCBDeinit                                            
20008159  _SlDrvDriverCBInit                                              
20012099  _SlDrvDriverIsApiAllowed                                        
20016909  _SlDrvGlobalObjUnLock                                           
200103bd  _SlDrvHandleFatalError                                          
200182c1  _SlDrvIsApiInProgress                                           
20018f49  _SlDrvIsSpawnOwnGlobalLock                                      
20010de9  _SlDrvIsTimeoutExpired                                          
20018c9d  _SlDrvMemZero                                                   
2000b8a9  _SlDrvMsgReadSpawnCtx                                           
2000d96d  _SlDrvObjGlobalLockWaitForever                                  
20018769  _SlDrvObjLockWaitForever                                        
20018787  _SlDrvObjUnLock                                                 
20012465  _SlDrvProtectAsyncRespSetting                                   
200180c5  _SlDrvProtectionObjLockWaitForever                              
200180ed  _SlDrvProtectionObjUnLock                                       
20009db9  _SlDrvReleaseAllActivePendingPoolObj                            
200072dd  _SlDrvReleasePoolObj                                            
20019097  _SlDrvResetCmdExt                                               
20014ce5  _SlDrvRxIrqHandler                                              
200182e5  _SlDrvStartMeasureTimeout                                       
200187a5  _SlDrvSyncObjSignal                                             
20017c8d  _SlDrvSyncObjWaitForever                                        
20015c75  _SlDrvSyncObjWaitTimeout                                        
2000ec11  _SlDrvWaitForInternalAsyncEvent                                 
20006a71  _SlDrvWaitForPoolObj                                            
20016949  _SlFindAndReleasePendingCmd                                     
20018115  _SlFlowContSet                                                  
20018891  _SlInternalIsItSpawnThread                                      
20014529  _SlInternalSpawn                                                
20015205  _SlInternalSpawnTaskEntry                                       
20016989  _SlInternalSpawnWaitForEvent                                    
200169c9  _SlIsEventRegistered                                            
20008b99  _SlNetAppEventHandler                                           
20015cbd  _SlNetAppEvtHdlr                                                
2000feb9  _SlNetAppHandleAsync_DnsGetHostByName                           
2000cde1  _SlNetAppHandleAsync_DnsGetHostByService                        
2000ece9  _SlNetAppHandleAsync_NetAppReceive                              
2000ff71  _SlNetAppHandleAsync_PingResponse                               
20015255  _SlNetAppHttpServerHdlr                                         
200152a5  _SlNetAppRequestHdlr                                            
20015d05  _SlNetAppRequestMemFree                                         
2000fa55  _SlNetAppSendResponse                                           
20023b94  _SlNetAppSendResponseCmdCtrl                                    
20013bb1  _SlNetAppSendTokenValue                                         
20023b98  _SlNetAppSendTokenValueCmdCtrl                                  
20010471  _SlNetUtilHandleAsync_Cmd                                       
20015d4d  _SlSockEvtHdlr                                                  
20011ee9  _SlSocketHandleAsync_Accept                                     
20010945  _SlSocketHandleAsync_Close                                      
200109f1  _SlSocketHandleAsync_Connect                                    
200059f9  _SlSocketHandleAsync_Select                                     
2000c145  _SlSocketHandleAsync_StartTLS                                   
20013dc5  _SlSpawnMsgListGetCount                                         
2000bed5  _SlSpawnMsgListInsert                                           
200113a1  _SlSpawnMsgListProcess                                          
20015d95  _SlWlanEvtHdlr                                                  
00000000  __ASM__                                                         
20022778  __CIOBUF_                                                       
0000009b  __ISA__                                                         
000000ae  __PLAT__                                                        
20004000  __STACK_END                                                     
00000400  __STACK_SIZE                                                    
000000d5  __TARG__                                                        
20024f78  __TI_CINIT_Base                                                 
20024f88  __TI_CINIT_Limit                                                
20024f60  __TI_Handler_Table_Base                                         
20024f6c  __TI_Handler_Table_Limit                                        
20011441  __TI_auto_init                                                  
2001764d  __TI_cleanup                                                    
20024a04  __TI_cleanup_ptr                                                
2001360d  __TI_closefile                                                  
20013e2d  __TI_decompress_lzss                                            
200190a5  __TI_decompress_none                                            
20015601  __TI_doflush                                                    
20024a08  __TI_dtors_ptr                                                  
20024a0c  __TI_enable_exit_profile_output                                 
200249e4  __TI_ft_end                                                     
ffffffff  __TI_pprof_out_hndl                                             
20004041  __TI_printfi                                                    
ffffffff  __TI_prof_data_size                                             
ffffffff  __TI_prof_data_start                                            
20017681  __TI_readmsg                                                    
20024ae0  __TI_static_base__                                              
20022898  __TI_tmpnams                                                    
2001724d  __TI_writemsg                                                   
2001422f  __TI_wrt_ok                                                     
200191ad  __TI_zero_init                                                  
000000fa  __TRDR__                                                        
20012821  __aeabi_cdcmpeq                                                 
20012821  __aeabi_cdcmple                                                 
200128a7  __aeabi_cdrcmple                                                
20015e25  __aeabi_d2iz                                                    
20016465  __aeabi_d2uiz                                                   
20009c0b  __aeabi_dadd                                                    
2000c00d  __aeabi_ddiv                                                    
2000db6d  __aeabi_dmul                                                    
20009c01  __aeabi_dsub                                                    
20019491  __aeabi_errno_addr                                              
20017b27  __aeabi_i2d                                                     
2000f503  __aeabi_idiv0                                                   
2000f503  __aeabi_ldiv0                                                   
20018b69  __aeabi_lmul                                                    
20013251  __aeabi_memclr                                                  
20013251  __aeabi_memclr4                                                 
20013251  __aeabi_memclr8                                                 
200116bd  __aeabi_memcpy                                                  
200116bd  __aeabi_memcpy4                                                 
200116bd  __aeabi_memcpy8                                                 
20013253  __aeabi_memset                                                  
20013253  __aeabi_memset4                                                 
20013253  __aeabi_memset8                                                 
200249f0  __aeabi_stderr                                                  
200249e8  __aeabi_stdin                                                   
200249ec  __aeabi_stdout                                                  
200185d1  __aeabi_ui2d                                                    
200119b9  __aeabi_uldivmod                                                
ffffffff  __binit__                                                       
ffffffff  __c_args__                                                      
200214f8  __primary_heap_end__                                            
200194f8  __primary_heap_start__                                          
20003c00  __stack                                                         
20018af1  _args_main                                                      
200163dd  _c_int00                                                        
20022fa0  _ctypes_                                                        
20024548  _device                                                         
20024090  _ftable                                                         
20024a3c  _lock                                                           
2000ee93  _nop                                                            
20013159  _pthread_abstime2ticks                                          
20017cb9  _pthread_cleanupFxn                                             
20011621  _pthread_removeThreadKeys                                       
20019189  _register_lock                                                  
20019195  _register_unlock                                                
200246bc  _stream                                                         
20024a40  _unlock                                                         
20024a48  allDataCaptured                                                 
20022c80  args                                                            
2001564d  atoi                                                            
ffffffff  binit                                                           
20022ce4  buffer                                                          
2002492a  c_pos                                                           
20017f7b  calloc                                                          
20022ce8  captHandle                                                      
20022c8c  captParams                                                      
20015ddd  capture                                                         
20023aec  captureCC32XXHWAttrs                                            
20022ae8  captureCC32XXObjects                                            
2000e5f1  clock_gettime                                                   
20014585  close                                                           
20015699  copy_in                                                         
200191a1  copysign                                                        
200191a1  copysignl                                                       
20024a44  countData                                                       
2002492b  cursor                                                          
20013c1d  cursor_moveto                                                   
20022508  data                                                            
20012575  down_arrows                                                     
20024928  edit                                                            
2000d00d  enter                                                           
20008595  execute_reading                                                 
20022c98  finaldata                                                       
200178b5  finddevice                                                      
20024945  flag                                                            
20012125  fputc                                                           
2000cef9  fputs                                                           
20018a13  free                                                            
200145e1  frexp                                                           
200145e1  frexpl                                                          
2001409d  fseek                                                           
20024a11  gGlobalLockCntReleased                                          
20024a10  gGlobalLockCntRequested                                         
20021c00  g_CB                                                            
200248bc  g_LibsEvents                                                    
20024a12  g_SlDeviceStatus                                                
20022b44  g_SlInternalSpawnCB                                             
200248e0  g_UserEvents                                                    
20024ab8  g_intHandle                                                     
20024a14  g_pCB                                                           
20018cc9  getPPM                                                          
20016421  getdevice                                                       
200247d0  gpioCallbackFunctions                                           
20024800  gpioPinConfigs                                                  
2000535d  httpTask                                                        
20024a54  httpThread                                                      
20022cec  i                                                               
20023b52  inPinTypes                                                      
2001577d  initCapture                                                     
20022cf0  j                                                               
20012b45  lcd_byte                                                        
20017d45  lcd_character                                                   
20017d71  lcd_command                                                     
2000df51  lcd_init_4bit                                                   
20017d9d  lcd_string                                                      
2000f035  ldexp                                                           
2000f035  ldexpl                                                          
2002494a  lookup_index                                                    
2001813d  lseek                                                           
20014d39  ltoa                                                            
20014101  main                                                            
2000d11d  mainPost                                                        
20008d8d  mainThread                                                      
20024ab4  main_func_sp                                                    
20017b55  malloc                                                          
2001073d  matchModeByRole                                                 
20024936  maxC                                                            
20024932  maxH                                                            
2002492e  maxT                                                            
200188ad  memccpy                                                         
200185b1  memchr                                                          
200116bd  memcpy                                                          
20013259  memset                                                          
20024938  minC                                                            
20024934  minH                                                            
20024930  minT                                                            
20022cf4  mode                                                            
20024948  newa                                                            
20024949  newb                                                            
20024946  olda                                                            
20024947  oldb                                                            
20023b58  outPinStrengths                                                 
20023b0c  outPinTypes                                                     
20024a18  pPingCallBackFunc                                               
20022ca4  packet                                                          
20022cb0  params                                                          
20022b90  paramsCO2                                                       
20023f98  parkInfo                                                        
20022cc4  parmbuf                                                         
200172bd  printError                                                      
20013e95  printf                                                          
20018309  pthread_attr_init                                               
200190c1  pthread_attr_setdetachstate                                     
20018d61  pthread_attr_setschedparam                                      
20019401  pthread_attr_setstacksize                                       
2000e411  pthread_create                                                  
20013f01  pthread_exit                                                    
20018ce1  pthread_mutex_destroy                                           
20014ad9  pthread_mutex_init                                              
20019409  pthread_mutex_lock                                              
20016cc1  pthread_mutex_unlock                                            
20018f69  pthread_mutexattr_init                                          
20018f79  pthread_mutexattr_settype                                       
200191e1  pthread_self                                                    
20012125  putc                                                            
20022cf8  pwm1                                                            
20023bc8  pwmTimerCC32XXHWAttrs                                           
20022bb4  pwmTimerCC32XXObjects                                           
20024a31  readCO2                                                         
200157c9  readMHZ16                                                       
20017ed1  remove                                                          
20018b51  restartCapture                                                  
20023c9c  s_text                                                          
2000f035  scalbn                                                          
2000f035  scalbnl                                                         
20024929  screen                                                          
2002492c  seconds                                                         
200193b1  sem_destroy                                                     
20019419  sem_getvalue                                                    
20017fa9  sem_init                                                        
200193c1  sem_post                                                        
20016bc9  sem_timedwait                                                   
200190d1  sem_wait                                                        
2000e8a9  setvbuf                                                         
20009f6d  sl_Accept                                                       
20010f35  sl_Bind                                                         
2000dc69  sl_Close                                                        
2000a75d  sl_Connect                                                      
20010d41  sl_FsClose                                                      
2000c5f9  sl_FsOpen                                                       
2000da6d  sl_FsWrite                                                      
20010525  sl_GetSockOpt                                                   
20014b31  sl_Listen                                                       
2000aa4d  sl_NetAppDnsGetHostByName                                       
2000f995  sl_NetCfgGet                                                    
200121b1  sl_Recv                                                         
2000ad15  sl_RecvFrom                                                     
20014b89  sl_RegisterLibsEventHandler                                     
20007029  sl_Select                                                       
2000fb11  sl_Send                                                         
2000e045  sl_SendTo                                                       
20012c4d  sl_SetSockOpt                                                   
200134ad  sl_Socket                                                       
2000cba1  sl_Start                                                        
2000b105  sl_StartTLS                                                     
200096c9  sl_Stop                                                         
200193cb  sl_Task                                                         
20012685  sl_UnregisterLibsEventHandler                                   
200077f1  sl_WlanConnect                                                  
200100e1  sl_WlanGet                                                      
20015861  sl_WlanSetMode                                                  
20016d01  sleep                                                           
20024a58  spawn_thread                                                    
2002334c  spiCC32XXDMAHWAttrs                                             
20022aa4  spiCC32XXDMAObjects                                             
20022cfc  spiCC32XXSDMAscratchBuf                                         
200190df  spi_Close                                                       
20013f69  spi_Open                                                        
200114e1  spi_Read                                                        
2001157f  spi_Write                                                       
20016a49  sprintf                                                         
200187ff  strcat                                                          
20018cf7  strchr                                                          
20018b81  strcmp                                                          
20018d89  strcpy                                                          
20018d9d  strlen                                                          
20017dc9  strncmp                                                         
20017477  strncpy                                                         
20017721  strstr                                                          
2000d22d  strtoul                                                         
2000b4e1  thresholdMax                                                    
2000b625  thresholdMin                                                    
20024904  ti_sysbios_BIOS_Module__state__V                                
20017e21  ti_sysbios_BIOS_RtsGateProxy_Handle__label__S                   
20013efd  ti_sysbios_BIOS_RtsGateProxy_enter__E                           
20014165  ti_sysbios_BIOS_RtsGateProxy_leave__E                           
200194a9  ti_sysbios_BIOS_RtsGateProxy_query__E                           
200178e5  ti_sysbios_BIOS_atExitFunc__I                                   
20018d0d  ti_sysbios_BIOS_exitFunc__I                                     
20018fa9  ti_sysbios_BIOS_getCpuFreq__E                                   
200194c1  ti_sysbios_BIOS_linkedWithIncorrectBootLibrary__E               
2000fd47  ti_sysbios_BIOS_nullFunc__I                                     
2001832d  ti_sysbios_BIOS_registerRTSLock__I                              
20018351  ti_sysbios_BIOS_removeRTSLock__I                                
200185f1  ti_sysbios_BIOS_rtsLock__I                                      
20018b99  ti_sysbios_BIOS_rtsUnlock__I                                    
20018fb9  ti_sysbios_BIOS_setThreadType__E                                
20017915  ti_sysbios_BIOS_startFunc__I                                    
20018fc9  ti_sysbios_BIOS_start__E                                        
200249f4  ti_sysbios_family_arm_cc32xx_Seconds_Module__state__V           
20014be1  ti_sysbios_family_arm_cc32xx_Seconds_getCount__I                
20014de1  ti_sysbios_family_arm_cc32xx_Seconds_getTime__E                 
20023bcc  ti_sysbios_family_arm_m3_Hwi_E_alreadyDefined__C                
20023bd0  ti_sysbios_family_arm_m3_Hwi_E_badIntNum__C                     
20016d41  ti_sysbios_family_arm_m3_Hwi_Instance_finalize__E               
20010199  ti_sysbios_family_arm_m3_Hwi_Instance_init__E                   
20024a3a  ti_sysbios_family_arm_m3_Hwi_Module_State_0_excActive__A        
20024ac0  ti_sysbios_family_arm_m3_Hwi_Module_State_0_excContext__A       
20024ac4  ti_sysbios_family_arm_m3_Hwi_Module_State_0_excStack__A         
200230a2  ti_sysbios_family_arm_m3_Hwi_Module__id__C                      
20024a5c  ti_sysbios_family_arm_m3_Hwi_Module__root__V                    
20018bb1  ti_sysbios_family_arm_m3_Hwi_Module__startupDone__F             
20018bb1  ti_sysbios_family_arm_m3_Hwi_Module__startupDone__S             
2002479c  ti_sysbios_family_arm_m3_Hwi_Module__state__V                   
20015349  ti_sysbios_family_arm_m3_Hwi_Module_startup__E                  
20023bd4  ti_sysbios_family_arm_m3_Hwi_NUM_INTERRUPTS__C                  
20023700  ti_sysbios_family_arm_m3_Hwi_Object__DESC__C                    
2002345c  ti_sysbios_family_arm_m3_Hwi_Object__PARAMS__C                  
20023bd8  ti_sysbios_family_arm_m3_Hwi_Object__count__C                   
20018611  ti_sysbios_family_arm_m3_Hwi_Object__delete__S                  
20018db1  ti_sysbios_family_arm_m3_Hwi_Object__get__S                     
200249a4  ti_sysbios_family_arm_m3_Hwi_Object__table__V                   
200191ed  ti_sysbios_family_arm_m3_Hwi_Params__init__S                    
20023bdc  ti_sysbios_family_arm_m3_Hwi_ccr__C                             
20018631  ti_sysbios_family_arm_m3_Hwi_clearInterrupt__E                  
20014e35  ti_sysbios_family_arm_m3_Hwi_create                             
200146f5  ti_sysbios_family_arm_m3_Hwi_delete                             
200191f9  ti_sysbios_family_arm_m3_Hwi_disableFxn__E                      
20015e71  ti_sysbios_family_arm_m3_Hwi_disableInterrupt__E                
20014169  ti_sysbios_family_arm_m3_Hwi_dispatchC__I                       
20021ffc  ti_sysbios_family_arm_m3_Hwi_dispatchTable                      
2000f2a5  ti_sysbios_family_arm_m3_Hwi_dispatch__I                        
20019421  ti_sysbios_family_arm_m3_Hwi_doSwiRestore__I                    
20019451  ti_sysbios_family_arm_m3_Hwi_doTaskRestore__I                   
20015eb9  ti_sysbios_family_arm_m3_Hwi_enableInterrupt__E                 
20018165  ti_sysbios_family_arm_m3_Hwi_excHandlerAsm__I                   
20023be0  ti_sysbios_family_arm_m3_Hwi_excHandlerFunc__C                  
200188c9  ti_sysbios_family_arm_m3_Hwi_excHandler__I                      
200164a9  ti_sysbios_family_arm_m3_Hwi_getStackInfo__E                    
20012711  ti_sysbios_family_arm_m3_Hwi_initNVIC__E                        
20015f01  ti_sysbios_family_arm_m3_Hwi_initStacks__E                      
2000f355  ti_sysbios_family_arm_m3_Hwi_interruptsAreDisabledButShouldNotBe
20023be4  ti_sysbios_family_arm_m3_Hwi_nullIsrFunc__C                     
e000e000  ti_sysbios_family_arm_m3_Hwi_nvic                               
20018a2d  ti_sysbios_family_arm_m3_Hwi_pendSV__I                          
20012cd1  ti_sysbios_family_arm_m3_Hwi_postInit__I                        
20023be8  ti_sysbios_family_arm_m3_Hwi_priGroup__C                        
20000000  ti_sysbios_family_arm_m3_Hwi_ramVectors                         
20004000  ti_sysbios_family_arm_m3_Hwi_resetVectors                       
20019459  ti_sysbios_family_arm_m3_Hwi_restoreFxn__E                      
20018a45  ti_sysbios_family_arm_m3_Hwi_return                             
20019429  ti_sysbios_family_arm_m3_Hwi_startup__E                         
20023bec  ti_sysbios_family_arm_m3_Hwi_swiDisable__C                      
20023bf0  ti_sysbios_family_arm_m3_Hwi_swiRestore__C                      
20018dc9  ti_sysbios_family_arm_m3_Hwi_switchFromBootStack__E             
20014755  ti_sysbios_family_arm_m3_TaskSupport_Module__startupDone__S     
200158ad  ti_sysbios_family_arm_m3_TaskSupport_buildTaskStack             
20019209  ti_sysbios_family_arm_m3_TaskSupport_getStackAlignment__E       
20018fd9  ti_sysbios_family_arm_m3_TaskSupport_glue                       
20023bf4  ti_sysbios_family_arm_m3_TaskSupport_stackAlignment__C          
20017949  ti_sysbios_family_arm_m3_TaskSupport_start__E                   
20018fe9  ti_sysbios_family_arm_m3_TaskSupport_swap__E                    
20023bf8  ti_sysbios_family_arm_m3_Timer_E_cannotSupport__C               
2002345a  ti_sysbios_family_arm_m3_Timer_Module__id__C                    
20018bc9  ti_sysbios_family_arm_m3_Timer_Module__startupDone__F           
20018bc9  ti_sysbios_family_arm_m3_Timer_Module__startupDone__S           
20024a1c  ti_sysbios_family_arm_m3_Timer_Module__state__V                 
200188e9  ti_sysbios_family_arm_m3_Timer_Module_startup__E                
20024830  ti_sysbios_family_arm_m3_Timer_Object__table__V                 
20019499  ti_sysbios_family_arm_m3_Timer_getMaxTicks__E                   
20015f49  ti_sysbios_family_arm_m3_Timer_initDevice__I                    
20017759  ti_sysbios_family_arm_m3_Timer_periodicStub__I                  
20018379  ti_sysbios_family_arm_m3_Timer_postInit__I                      
20016d81  ti_sysbios_family_arm_m3_Timer_setPeriodMicroSecs__E            
20014e89  ti_sysbios_family_arm_m3_Timer_setPeriod__E                     
20014699  ti_sysbios_family_arm_m3_Timer_start__E                         
20023bfc  ti_sysbios_family_arm_m3_Timer_startupNeeded__C                 
200183a1  ti_sysbios_family_arm_m3_Timer_startup__E                       
20018909  ti_sysbios_family_arm_m3_Timer_stop__E                          
2001881d  ti_sysbios_family_xxx_Hwi_switchAndRunFunc                      
20017df5  ti_sysbios_gates_GateHwi_Handle__label__S                       
200194c9  ti_sysbios_gates_GateHwi_Instance_init__E                       
20023524  ti_sysbios_gates_GateHwi_Module__FXNS__C                        
20024a64  ti_sysbios_gates_GateHwi_Module__root__V                        
20023720  ti_sysbios_gates_GateHwi_Object__DESC__C                        
200238a0  ti_sysbios_gates_GateHwi_Object__PARAMS__C                      
20017979  ti_sysbios_gates_GateHwi_Object__create__S                      
20018651  ti_sysbios_gates_GateHwi_Object__delete__S                      
20024ac8  ti_sysbios_gates_GateHwi_Object__table__V                       
20019219  ti_sysbios_gates_GateHwi_enter__E                               
20019461  ti_sysbios_gates_GateHwi_leave__E                               
200194a1  ti_sysbios_gates_GateHwi_query__E                               
20017e21  ti_sysbios_gates_GateMutex_Handle__label__S                     
20023c00  ti_sysbios_gates_GateMutex_Instance_State_sem__O                
20018ff9  ti_sysbios_gates_GateMutex_Instance_finalize__E                 
20018929  ti_sysbios_gates_GateMutex_Instance_init__E                     
20023548  ti_sysbios_gates_GateMutex_Module__FXNS__C                      
20024a6c  ti_sysbios_gates_GateMutex_Module__root__V                      
20023740  ti_sysbios_gates_GateMutex_Object__DESC__C                      
200238b8  ti_sysbios_gates_GateMutex_Object__PARAMS__C                    
200179a9  ti_sysbios_gates_GateMutex_Object__create__S                    
200183c5  ti_sysbios_gates_GateMutex_Object__delete__S                    
20024618  ti_sysbios_gates_GateMutex_Object__table__V                     
200179d9  ti_sysbios_gates_GateMutex_enter__E                             
20018be1  ti_sysbios_gates_GateMutex_leave__E                             
200194a9  ti_sysbios_gates_GateMutex_query__E                             
20018bb1  ti_sysbios_hal_Hwi_HwiProxy_Module__startupDone__S              
200191ed  ti_sysbios_hal_Hwi_HwiProxy_Params__init__S                     
20018631  ti_sysbios_hal_Hwi_HwiProxy_clearInterrupt__E                   
20015e71  ti_sysbios_hal_Hwi_HwiProxy_disableInterrupt__E                 
200191f9  ti_sysbios_hal_Hwi_HwiProxy_disable__E                          
20015eb9  ti_sysbios_hal_Hwi_HwiProxy_enableInterrupt__E                  
200164a9  ti_sysbios_hal_Hwi_HwiProxy_getStackInfo__E                     
20019459  ti_sysbios_hal_Hwi_HwiProxy_restore__E                          
20019429  ti_sysbios_hal_Hwi_HwiProxy_startup__E                          
20018dc9  ti_sysbios_hal_Hwi_HwiProxy_switchFromBootStack__E              
20018ea1  ti_sysbios_hal_Hwi_Module_startup__E                            
20018631  ti_sysbios_hal_Hwi_clearInterrupt__E                            
20015e71  ti_sysbios_hal_Hwi_disableInterrupt__E                          
20015eb9  ti_sysbios_hal_Hwi_enableInterrupt__E                           
200164a9  ti_sysbios_hal_Hwi_getStackInfo__E                              
200177c1  ti_sysbios_hal_Hwi_initStack                                    
20019429  ti_sysbios_hal_Hwi_startup__E                                   
20018dc9  ti_sysbios_hal_Hwi_switchFromBootStack__E                       
20014de1  ti_sysbios_hal_Seconds_SecondsProxy_getTime__E                  
20014de1  ti_sysbios_hal_Seconds_getTime__E                               
20023c04  ti_sysbios_heaps_HeapMem_E_memory__C                            
20017e4d  ti_sysbios_heaps_HeapMem_Handle__label__S                       
20016a89  ti_sysbios_heaps_HeapMem_Instance_init__E                       
20017e21  ti_sysbios_heaps_HeapMem_Module_GateProxy_Handle__label__S      
200147b5  ti_sysbios_heaps_HeapMem_Module_GateProxy_enter__E              
20014ad5  ti_sysbios_heaps_HeapMem_Module_GateProxy_leave__E              
200194a9  ti_sysbios_heaps_HeapMem_Module_GateProxy_query__E              
200234b4  ti_sysbios_heaps_HeapMem_Module__FXNS__C                        
20023c08  ti_sysbios_heaps_HeapMem_Module__gateObj__C                     
20023c94  ti_sysbios_heaps_HeapMem_Module__id__C                          
20024a74  ti_sysbios_heaps_HeapMem_Module__root__V                        
20023760  ti_sysbios_heaps_HeapMem_Object__DESC__C                        
2002356c  ti_sysbios_heaps_HeapMem_Object__PARAMS__C                      
20023c0c  ti_sysbios_heaps_HeapMem_Object__count__C                       
20017a09  ti_sysbios_heaps_HeapMem_Object__create__S                      
20018671  ti_sysbios_heaps_HeapMem_Object__delete__S                      
20018ddd  ti_sysbios_heaps_HeapMem_Object__get__S                         
200249bc  ti_sysbios_heaps_HeapMem_Object__table__V                       
2000f109  ti_sysbios_heaps_HeapMem_alloc__E                               
20012d59  ti_sysbios_heaps_HeapMem_free__E                                
200158f9  ti_sysbios_heaps_HeapMem_getStats__E                            
20013849  ti_sysbios_heaps_HeapMem_initPrimary__I                         
20019469  ti_sysbios_heaps_HeapMem_isBlocking__E                          
20023c10  ti_sysbios_heaps_HeapMem_primaryHeapBaseAddr__C                 
20023c14  ti_sysbios_heaps_HeapMem_primaryHeapEndAddr__C                  
20023c18  ti_sysbios_heaps_HeapMem_reqAlign__C                            
20018949  ti_sysbios_knl_Clock_Instance_finalize__E                       
20015399  ti_sysbios_knl_Clock_Instance_init__E                           
20023c1c  ti_sysbios_knl_Clock_Module_State_clockQ__O                     
20024a7c  ti_sysbios_knl_Clock_Module__root__V                            
20024890  ti_sysbios_knl_Clock_Module__state__V                           
200183e9  ti_sysbios_knl_Clock_Module_startup__E                          
20023780  ti_sysbios_knl_Clock_Object__DESC__C                            
20023590  ti_sysbios_knl_Clock_Object__PARAMS__C                          
2001840d  ti_sysbios_knl_Clock_Object__delete__S                          
20019225  ti_sysbios_knl_Clock_Params__init__S                            
20018bc9  ti_sysbios_knl_Clock_TimerProxy_Module__startupDone__S          
20015345  ti_sysbios_knl_Clock_TimerProxy_getMaxTicks__E                  
20015945  ti_sysbios_knl_Clock_TimerProxy_setPeriodMicroSecs__E           
20015995  ti_sysbios_knl_Clock_TimerProxy_start__E                        
200183a1  ti_sysbios_knl_Clock_TimerProxy_startup__E                      
200159e5  ti_sysbios_knl_Clock_TimerProxy_stop__E                         
20018191  ti_sysbios_knl_Clock_addI__E                                    
20016dbd  ti_sysbios_knl_Clock_create                                     
20015e6d  ti_sysbios_knl_Clock_delete                                     
20017e79  ti_sysbios_knl_Clock_doTick__I                                  
20016df9  ti_sysbios_knl_Clock_getTicksUntilTimeout__E                    
20019231  ti_sysbios_knl_Clock_getTicks__E                                
200194d1  ti_sysbios_knl_Clock_logTick__E                                 
20019241  ti_sysbios_knl_Clock_setTicks__E                                
200194b1  ti_sysbios_knl_Clock_setTimeout__E                              
20018431  ti_sysbios_knl_Clock_start__E                                   
20019471  ti_sysbios_knl_Clock_stop__E                                    
200230a1  ti_sysbios_knl_Clock_tickMode__C                                
20023c20  ti_sysbios_knl_Clock_tickPeriod__C                              
20018df1  ti_sysbios_knl_Clock_tickReconfig__E                            
2002363f  ti_sysbios_knl_Clock_tickSource__C                              
20019251  ti_sysbios_knl_Clock_tickStart__E                               
20019261  ti_sysbios_knl_Clock_tickStop__E                                
20016df9  ti_sysbios_knl_Clock_walkQueuePeriodic__E                       
20012e61  ti_sysbios_knl_Clock_workFunc__E                                
20023b1c  ti_sysbios_knl_Idle_funcList__A                                 
20023b24  ti_sysbios_knl_Idle_funcList__C                                 
200190f1  ti_sysbios_knl_Idle_loop__E                                     
20018691  ti_sysbios_knl_Idle_run__E                                      
20023c24  ti_sysbios_knl_Mailbox_Instance_State_freeQue__O                
20015f91  ti_sysbios_knl_Mailbox_Module_startup__E                        
20023c28  ti_sysbios_knl_Mailbox_Object__count__C                         
20019009  ti_sysbios_knl_Mailbox_Object__get__S                           
20023c2c  ti_sysbios_knl_Mailbox_maxTypeAlign__C                          
200164f1  ti_sysbios_knl_Mailbox_postInit__I                              
20019479  ti_sysbios_knl_Queue_Instance_init__E                           
20024a84  ti_sysbios_knl_Queue_Module__root__V                            
200237a0  ti_sysbios_knl_Queue_Object__DESC__C                            
200238d0  ti_sysbios_knl_Queue_Object__PARAMS__C                          
2001926d  ti_sysbios_knl_Queue_Object__get__S                             
20017ea5  ti_sysbios_knl_Queue_construct                                  
20018965  ti_sysbios_knl_Queue_destruct                                   
20019101  ti_sysbios_knl_Queue_empty__E                                   
20018981  ti_sysbios_knl_Queue_put__E                                     
20023c30  ti_sysbios_knl_Semaphore_Instance_State_pendQ__O                
20019019  ti_sysbios_knl_Semaphore_Instance_finalize__E                   
20018459  ti_sysbios_knl_Semaphore_Instance_init__E                       
20024a8c  ti_sysbios_knl_Semaphore_Module__root__V                        
200237c0  ti_sysbios_knl_Semaphore_Object__DESC__C                        
200235b4  ti_sysbios_knl_Semaphore_Object__PARAMS__C                      
2001847d  ti_sysbios_knl_Semaphore_Object__delete__S                      
20019279  ti_sysbios_knl_Semaphore_Params__init__S                        
20017a39  ti_sysbios_knl_Semaphore_construct                              
2001778d  ti_sysbios_knl_Semaphore_create                                 
200164ed  ti_sysbios_knl_Semaphore_delete                                 
200186b1  ti_sysbios_knl_Semaphore_destruct                               
20017a69  ti_sysbios_knl_Semaphore_pendTimeout__I                         
2000c279  ti_sysbios_knl_Semaphore_pend__E                                
20014351  ti_sysbios_knl_Semaphore_post__E                                
20024448  ti_sysbios_knl_Swi_Module_State_0_readyQ__A                     
20024988  ti_sysbios_knl_Swi_Module__state__V                             
200181b9  ti_sysbios_knl_Swi_Module_startup__E                            
20023c34  ti_sysbios_knl_Swi_Object__count__C                             
20018e05  ti_sysbios_knl_Swi_Object__get__S                               
20024860  ti_sysbios_knl_Swi_Object__table__V                             
20019029  ti_sysbios_knl_Swi_disable__E                                   
20016539  ti_sysbios_knl_Swi_post__E                                      
20013c89  ti_sysbios_knl_Swi_restoreHwi__E                                
20016e39  ti_sysbios_knl_Swi_restore__E                                   
20015949  ti_sysbios_knl_Swi_runLoop__I                                   
200143b1  ti_sysbios_knl_Swi_run__I                                       
200146f9  ti_sysbios_knl_Swi_schedule__I                                  
20019481  ti_sysbios_knl_Swi_startup__E                                   
20022d00  ti_sysbios_knl_Task_Instance_State_0_hookEnv__A                 
20022308  ti_sysbios_knl_Task_Instance_State_0_stack__A                   
2000d869  ti_sysbios_knl_Task_Instance_finalize__E                        
2000e501  ti_sysbios_knl_Task_Instance_init__E                            
20024acc  ti_sysbios_knl_Task_Module_State_0_idleTask__A                  
200244c8  ti_sysbios_knl_Task_Module_State_0_readyQ__A                    
20023c38  ti_sysbios_knl_Task_Module_State_inactiveQ__O                   
20024a94  ti_sysbios_knl_Task_Module__root__V                             
20024758  ti_sysbios_knl_Task_Module__state__V                            
20012009  ti_sysbios_knl_Task_Module_startup__E                           
200237e0  ti_sysbios_knl_Task_Object__DESC__C                             
20023388  ti_sysbios_knl_Task_Object__PARAMS__C                           
20023c3c  ti_sysbios_knl_Task_Object__count__C                            
200186d1  ti_sysbios_knl_Task_Object__delete__S                           
20019039  ti_sysbios_knl_Task_Object__get__S                              
20023c40  ti_sysbios_knl_Task_Object__heap__C                             
2002470c  ti_sysbios_knl_Task_Object__table__V                            
20019285  ti_sysbios_knl_Task_Params__init__S                             
20014755  ti_sysbios_knl_Task_SupportProxy_Module__startupDone__S         
20019209  ti_sysbios_knl_Task_SupportProxy_getStackAlignment__E           
20017949  ti_sysbios_knl_Task_SupportProxy_start__E                       
20018fe9  ti_sysbios_knl_Task_SupportProxy_swap__E                        
20023c44  ti_sysbios_knl_Task_allBlockedFunc__C                           
20015999  ti_sysbios_knl_Task_allBlockedFunction__I                       
200153e9  ti_sysbios_knl_Task_create                                      
20023c48  ti_sysbios_knl_Task_defaultStackHeap__C                         
20023c4c  ti_sysbios_knl_Task_defaultStackSize__C                         
20016535  ti_sysbios_knl_Task_delete                                      
20019049  ti_sysbios_knl_Task_disable__E                                  
200189a1  ti_sysbios_knl_Task_enter__I                                    
20011c11  ti_sysbios_knl_Task_exit__E                                     
200238e8  ti_sysbios_knl_Task_hooks__A                                    
20023b2c  ti_sysbios_knl_Task_hooks__C                                    
20023c50  ti_sysbios_knl_Task_numConstructedTasks__C                      
2000d341  ti_sysbios_knl_Task_postInit__I                                 
20017331  ti_sysbios_knl_Task_processVitalTaskFlag__I                     
200184a1  ti_sysbios_knl_Task_restoreHwi__E                               
20017a99  ti_sysbios_knl_Task_restore__E                                  
200159e9  ti_sysbios_knl_Task_schedule__I                                 
20019291  ti_sysbios_knl_Task_self__E                                     
20010fd9  ti_sysbios_knl_Task_setPri__E                                   
20018bf9  ti_sysbios_knl_Task_sleepTimeout__I                             
2000f691  ti_sysbios_knl_Task_sleep__E                                    
20014759  ti_sysbios_knl_Task_startCore__E                                
200194b9  ti_sysbios_knl_Task_startup__E                                  
20018ff1  ti_sysbios_knl_Task_swapReturn                                  
20017ac9  ti_sysbios_knl_Task_unblockI__E                                 
20024ad0  ti_sysbios_rts_ti_ReentSupport_Module__state__V                 
200189c1  ti_sysbios_rts_ti_ReentSupport_getReent__E                      
200189c1  ti_sysbios_rts_ti_ReentSupport_getReent__F                      
20018c11  ti_sysbios_rts_ti_ReentSupport_getTlsAddr__I                    
200192a1  ti_sysbios_rts_ti_ReentSupport_taskRegHook__I                   
20022d04  timer                                                           
20022d08  timer0                                                          
20023800  timerCC32XXHWAttrs                                              
20022a3c  timerCC32XXObjects                                              
20018e19  timerCallback                                                   
20018c29  timer_callback                                                  
20012ee1  turn_AC_OFF                                                     
20012f61  turn_AC_ON                                                      
200192ad  uDMAErrorStatusClear                                            
200192b9  uDMAErrorStatusGet                                              
20022938  uartCC32XXObjects0                                              
20022d0c  uartCO2                                                         
20023ac4  udmaCC3220SHWAttrs                                              
20022ccc  udmaCC3220SObject                                               
20017ed1  unlink                                                          
20012799  up_arrows                                                       
2000e985  update_text                                                     
20007f31  update_values                                                   
20016eb1  usleep                                                          
20016ac9  vsnprintf                                                       
20018eb3  wcslen                                                          
200181e1  write                                                           
00000001  xdc_rov_runtime_Mon__checksum                                   
00000001  xdc_rov_runtime_Mon__write                                      
20015fd9  xdc_runtime_Core_assignParams__I                                
20012931  xdc_runtime_Core_constructObject__I                             
2000fbd1  xdc_runtime_Core_createObject__I                                
20013681  xdc_runtime_Core_deleteObject__I                                
20023c54  xdc_runtime_Error_E_memory__C                                   
2002494c  xdc_runtime_Error_IgnoreBlock                                   
20018c41  xdc_runtime_Error_init__E                                       
20023c58  xdc_runtime_Error_policyFxn__C                                  
200184c9  xdc_runtime_Error_policyMin__E                                  
20023c98  xdc_runtime_Error_policy__C                                     
20023c5c  xdc_runtime_IGateProvider_Interface__BASE__C                    
20023c60  xdc_runtime_IHeap_Interface__BASE__C                            
20023c64  xdc_runtime_IModule_Interface__BASE__C                          
20017df5  xdc_runtime_Main_Module_GateProxy_Handle__label__S              
200194a1  xdc_runtime_Main_Module_GateProxy_query__E                      
20017e4d  xdc_runtime_Memory_HeapProxy_Handle__label__S                   
200193d5  xdc_runtime_Memory_HeapProxy_alloc__E                           
200193df  xdc_runtime_Memory_HeapProxy_free__E                            
20023c96  xdc_runtime_Memory_Module__id__C                                
20024ad4  xdc_runtime_Memory_Module__state__V                             
20012241  xdc_runtime_Memory_alloc__E                                     
20023c68  xdc_runtime_Memory_defaultHeapInstance__C                       
20019059  xdc_runtime_Memory_free__E                                      
20024a9c  xdc_runtime_Startup_Module__state__V                            
00000001  xdc_runtime_Startup__EXECFXN__C                                 
00000001  xdc_runtime_Startup__RESETFXN__C                                
20023c6c  xdc_runtime_Startup_execImpl__C                                 
200147b9  xdc_runtime_Startup_exec__E                                     
20018ec5  xdc_runtime_Startup_exec__I                                     
20023ad0  xdc_runtime_Startup_firstFxns__A                                
20023b3c  xdc_runtime_Startup_firstFxns__C                                
20023b44  xdc_runtime_Startup_lastFxns__C                                 
20023c70  xdc_runtime_Startup_maxPasses__C                                
20010307  xdc_runtime_Startup_reset__I                                    
200192c9  xdc_runtime_Startup_rtsDone__E                                  
20023a3c  xdc_runtime_Startup_sfxnRts__A                                  
20023c74  xdc_runtime_Startup_sfxnRts__C                                  
20023820  xdc_runtime_Startup_sfxnTab__A                                  
20023c78  xdc_runtime_Startup_sfxnTab__C                                  
2000ccc1  xdc_runtime_Startup_startMods__I                                
20023c7c  xdc_runtime_SysCallback_abortFxn__C                             
20019069  xdc_runtime_SysCallback_abort__E                                
200194d9  xdc_runtime_SysCallback_defaultAbort                            
200194e1  xdc_runtime_SysCallback_defaultExit                             
20023c80  xdc_runtime_SysCallback_exitFxn__C                              
20019079  xdc_runtime_SysCallback_exit__E                                 
20017df5  xdc_runtime_System_Module_GateProxy_Handle__label__S            
2001657d  xdc_runtime_System_Module_GateProxy_enter__E                    
20016cbd  xdc_runtime_System_Module_GateProxy_leave__E                    
200194a1  xdc_runtime_System_Module_GateProxy_query__E                    
20024aa4  xdc_runtime_System_Module_State_0_atexitHandlers__A             
20023c84  xdc_runtime_System_Module__gateObj__C                           
20024aac  xdc_runtime_System_Module__state__V                             
20019489  xdc_runtime_System_Module_startup__E                            
20019069  xdc_runtime_System_SupportProxy_abort__E                        
20019079  xdc_runtime_System_SupportProxy_exit__E                         
20023c88  xdc_runtime_System_abortFxn__C                                  
200194e9  xdc_runtime_System_abortSpin__E                                 
20016581  xdc_runtime_System_atexit__E                                    
20023c8c  xdc_runtime_System_exitFxn__C                                   
200194f1  xdc_runtime_System_exitSpin__E                                  
20018c59  xdc_runtime_System_exit__E                                      
20023c90  xdc_runtime_System_maxAtexitHandlers__C                         
20016ef1  xdc_runtime_System_processAtExit__E                             


GLOBAL SYMBOLS: SORTED BY Symbol Address 

address   name                                                            
-------   ----                                                            
00000000  __ASM__                                                         
00000001  xdc_rov_runtime_Mon__checksum                                   
00000001  xdc_rov_runtime_Mon__write                                      
00000001  xdc_runtime_Startup__EXECFXN__C                                 
00000001  xdc_runtime_Startup__RESETFXN__C                                
0000009b  __ISA__                                                         
000000ae  __PLAT__                                                        
000000d5  __TARG__                                                        
000000fa  __TRDR__                                                        
00000400  __STACK_SIZE                                                    
00008000  HEAPSIZE                                                        
20000000  ti_sysbios_family_arm_m3_Hwi_ramVectors                         
20003c00  __stack                                                         
20004000  __STACK_END                                                     
20004000  ti_sysbios_family_arm_m3_Hwi_resetVectors                       
20004041  __TI_printfi                                                    
20004a8f  Board_initHook                                                  
2000535d  httpTask                                                        
200059f9  _SlSocketHandleAsync_Select                                     
20005eb5  PRCMCC3200MCUInit                                               
20006a71  _SlDrvWaitForPoolObj                                            
20007029  sl_Select                                                       
200072dd  _SlDrvReleasePoolObj                                            
20007571  UARTCC32XX_open                                                 
200077f1  sl_WlanConnect                                                  
20007cd5  _SlDrvDataReadOp                                                
20007f31  update_values                                                   
20008159  _SlDrvDriverCBInit                                              
2000837d  _SlDrvDataWriteOp                                               
20008595  execute_reading                                                 
20008b99  _SlNetAppEventHandler                                           
20008d8b  CaptureCC32XX_init                                              
20008d8d  mainThread                                                      
20008f79  HTTPClient_connect2                                             
20009159  GPIO_setConfig                                                  
2000932d  SPICC32XXDMA_transfer                                           
200096c9  sl_Stop                                                         
20009891  DHT_translateData                                               
20009c01  __aeabi_dsub                                                    
20009c0b  __aeabi_dadd                                                    
20009db7  PWMTimerCC32XX_init                                             
20009db9  _SlDrvReleaseAllActivePendingPoolObj                            
20009f6d  sl_Accept                                                       
2000a75d  sl_Connect                                                      
2000aa4d  sl_NetAppDnsGetHostByName                                       
2000abbd  SPICC32XXDMA_open                                               
2000ad15  sl_RecvFrom                                                     
2000ae69  SimpleLinkNetAppEventHandler                                    
2000afb9  PowerCC32XX_sleepPolicy                                         
2000b105  sl_StartTLS                                                     
2000b4e1  thresholdMax                                                    
2000b625  thresholdMin                                                    
2000b769  PWMTimerCC32XX_setDutyAndPeriod                                 
2000b8a9  _SlDrvMsgReadSpawnCtx                                           
2000b9e9  _SlDrvDriverCBDeinit                                            
2000bd9d  Power_sleep                                                     
2000bed5  _SlSpawnMsgListInsert                                           
2000c00d  __aeabi_ddiv                                                    
2000c143  TimerCC32XX_init                                                
2000c145  _SlSocketHandleAsync_StartTLS                                   
2000c279  ti_sysbios_knl_Semaphore_pend__E                                
2000c3a9  TimerCC32XX_open                                                
2000c5f9  sl_FsOpen                                                       
2000c83f  UARTCC32XX_init                                                 
2000c841  UARTCC32XX_close                                                
2000cba1  sl_Start                                                        
2000ccc1  xdc_runtime_Startup_startMods__I                                
2000cde1  _SlNetAppHandleAsync_DnsGetHostByService                        
2000cef9  fputs                                                           
2000d00d  enter                                                           
2000d11d  mainPost                                                        
2000d22d  strtoul                                                         
2000d33d  ClockP_getCpuFreq                                               
2000d341  ti_sysbios_knl_Task_postInit__I                                 
2000d451  HTTPClient_setHeader                                            
2000d661  _SlDeviceEventHandler                                           
2000d765  _SlDrvCmdOp                                                     
2000d869  ti_sysbios_knl_Task_Instance_finalize__E                        
2000d96d  _SlDrvObjGlobalLockWaitForever                                  
2000da6d  sl_FsWrite                                                      
2000db6d  __aeabi_dmul                                                    
2000dc69  sl_Close                                                        
2000dd65  SlNetIfWifi_loadSecObj                                          
2000df51  lcd_init_4bit                                                   
2000e045  sl_SendTo                                                       
2000e139  SPICC32XXDMA_transferCancel                                     
2000e22b  UARTCC32XX_control                                              
2000e31d  PWMTimerCC32XX_open                                             
2000e40d  ClockP_setTimeout                                               
2000e411  pthread_create                                                  
2000e501  ti_sysbios_knl_Task_Instance_init__E                            
2000e5f1  clock_gettime                                                   
2000e6dd  SlNetIf_add                                                     
2000e7c5  CaptureCC32XX_open                                              
2000e8a9  setvbuf                                                         
2000e985  update_text                                                     
2000ea61  SPICC32XXDMA_close                                              
2000eb39  _SlDeviceHandleAsync_InitComplete                               
2000ec11  _SlDrvWaitForInternalAsyncEvent                                 
2000ece9  _SlNetAppHandleAsync_NetAppReceive                              
2000edc1  HTTPClient_connect                                              
2000ee93  _nop                                                            
2000f035  ldexp                                                           
2000f035  ldexpl                                                          
2000f035  scalbn                                                          
2000f035  scalbnl                                                         
2000f105  ClockP_start                                                    
2000f109  ti_sysbios_heaps_HeapMem_alloc__E                               
2000f2a5  ti_sysbios_family_arm_m3_Hwi_dispatch__I                        
2000f355  ti_sysbios_family_arm_m3_Hwi_interruptsAreDisabledButShouldNotBe
2000f371  UARTCC32XX_write                                                
2000f503  __aeabi_idiv0                                                   
2000f503  __aeabi_ldiv0                                                   
2000f505  GPIO_init                                                       
2000f5c9  PWMTimerCC32XX_stop                                             
2000f68d  ClockP_stop                                                     
2000f691  ti_sysbios_knl_Task_sleep__E                                    
2000f755  NwpPowerOff                                                     
2000f995  sl_NetCfgGet                                                    
2000fa55  _SlNetAppSendResponse                                           
2000fb11  sl_Send                                                         
2000fbcd  HwiP_clearInterrupt                                             
2000fbd1  xdc_runtime_Core_createObject__I                                
2000fc8d  UARTCC32XX_readPolling                                          
2000fd47  ti_sysbios_BIOS_nullFunc__I                                     
2000fd49  HTTPClient_readResponseBody                                     
2000fe01  PWMTimerCC32XX_setDuty                                          
2000feb9  _SlNetAppHandleAsync_DnsGetHostByName                           
2000ff71  _SlNetAppHandleAsync_PingResponse                               
200100e1  sl_WlanGet                                                      
20010199  ti_sysbios_family_arm_m3_Hwi_Instance_init__E                   
20010307  xdc_runtime_Startup_reset__I                                    
20010309  DHT_read                                                        
200103bd  _SlDrvHandleFatalError                                          
20010471  _SlNetUtilHandleAsync_Cmd                                       
20010525  sl_GetSockOpt                                                   
2001068d  SlNetIfWifi_getSockOpt                                          
2001073d  matchModeByRole                                                 
20010899  UART_CO2_init                                                   
20010945  _SlSocketHandleAsync_Close                                      
200109f1  _SlSocketHandleAsync_Connect                                    
20010b49  PRCMPeripheralClockGet                                          
20010bf1  PowerCC32XX_configureWakeup                                     
20010d41  sl_FsClose                                                      
20010de9  _SlDrvIsTimeoutExpired                                          
20010f35  sl_Bind                                                         
20010fd9  ti_sysbios_knl_Task_setPri__E                                   
20011261  IR_Init                                                         
200113a1  _SlSpawnMsgListProcess                                          
20011441  __TI_auto_init                                                  
200114e1  spi_Read                                                        
2001157f  spi_Write                                                       
2001161d  HwiP_disable                                                    
20011621  _pthread_removeThreadKeys                                       
200116bd  __aeabi_memcpy                                                  
200116bd  __aeabi_memcpy4                                                 
200116bd  __aeabi_memcpy8                                                 
200116bd  memcpy                                                          
20011759  HTTPClient_sendRequest                                          
200117f1  PWMTimerCC32XX_setPeriod                                        
200119b9  __aeabi_uldivmod                                                
20011a51  Semaphore_pend_handle                                           
20011c0d  HwiP_disableInterrupt                                           
20011c11  ti_sysbios_knl_Task_exit__E                                     
20011ca5  SlNetSock_create                                                
20011e59  _SlDeviceHandleAsync_Stop                                       
20011ee9  _SlSocketHandleAsync_Accept                                     
20012009  ti_sysbios_knl_Task_Module_startup__E                           
20012099  _SlDrvDriverIsApiAllowed                                        
20012125  fputc                                                           
20012125  putc                                                            
200121b1  sl_Recv                                                         
2001223d  HwiP_enableInterrupt                                            
20012241  xdc_runtime_Memory_alloc__E                                     
200122cd  PWMTimerCC32XX_close                                            
20012355  PinConfigSet                                                    
200123dd  TimerCC32XX_setPeriod                                           
20012465  _SlDrvProtectAsyncRespSetting                                   
20012575  down_arrows                                                     
20012685  sl_UnregisterLibsEventHandler                                   
2001270d  SPICC32XXDMA_init                                               
20012711  ti_sysbios_family_arm_m3_Hwi_initNVIC__E                        
20012799  up_arrows                                                       
20012821  __aeabi_cdcmpeq                                                 
20012821  __aeabi_cdcmple                                                 
200128a7  __aeabi_cdrcmple                                                
2001292d  SemaphoreP_post                                                 
20012931  xdc_runtime_Core_constructObject__I                             
200129b9  Power_init                                                      
20012a3d  SlNetIfWifi_sockstartSec                                        
20012ac1  SlNetUtil_getHostByName                                         
20012b45  lcd_byte                                                        
20012c4d  sl_SetSockOpt                                                   
20012cd1  ti_sysbios_family_arm_m3_Hwi_postInit__I                        
20012d55  SlNetIf_init                                                    
20012d59  ti_sysbios_heaps_HeapMem_free__E                                
20012ddd  Power_setDependency                                             
20012e5d  SlNetUtil_init                                                  
20012e61  ti_sysbios_knl_Clock_workFunc__E                                
20012ee1  turn_AC_OFF                                                     
20012f61  turn_AC_ON                                                      
20012fe1  CaptureCC32XX_start                                             
2001305d  Connect                                                         
200130d9  UDMACC32XX_open                                                 
20013159  _pthread_abstime2ticks                                          
20013251  __aeabi_memclr                                                  
20013251  __aeabi_memclr4                                                 
20013251  __aeabi_memclr8                                                 
20013253  __aeabi_memset                                                  
20013253  __aeabi_memset4                                                 
20013253  __aeabi_memset8                                                 
20013259  memset                                                          
200132cd  GPIO_hwiIntFxn                                                  
20013345  TimerCC32XX_start                                               
200134ad  sl_Socket                                                       
2001360d  __TI_closefile                                                  
20013681  xdc_runtime_Core_deleteObject__I                                
200136f5  HTTPClient_disconnect                                           
20013765  _SlDrvCmdSend_noLock                                            
20013849  ti_sysbios_heaps_HeapMem_initPrimary__I                         
20013929  CaptureCC32XX_close                                             
20013995  HOSTrename                                                      
20013a01  HTTPClient_getHeader                                            
20013ad9  _SlDeviceHandleResetRequestInternally                           
20013bb1  _SlNetAppSendTokenValue                                         
20013c1d  cursor_moveto                                                   
20013c89  ti_sysbios_knl_Swi_restoreHwi__E                                
20013cf5  HOSTlseek                                                       
20013d5d  PWMTimerCC32XX_start                                            
20013dc5  _SlSpawnMsgListGetCount                                         
20013e2d  __TI_decompress_lzss                                            
20013e95  printf                                                          
20013efd  ti_sysbios_BIOS_RtsGateProxy_enter__E                           
20013f01  pthread_exit                                                    
20013f69  spi_Open                                                        
20013fd1  UARTCC32XX_writeCancel                                          
20014039  PowerCC32XX_setParkState                                        
2001409d  fseek                                                           
20014101  main                                                            
20014165  ti_sysbios_BIOS_RtsGateProxy_leave__E                           
20014169  ti_sysbios_family_arm_m3_Hwi_dispatchC__I                       
200141cd  UARTCC32XX_writePolling                                         
2001422f  __TI_wrt_ok                                                     
20014291  HOSTopen                                                        
200142f1  PRCMSysResetCauseGet                                            
20014351  ti_sysbios_knl_Semaphore_post__E                                
200143b1  ti_sysbios_knl_Swi_run__I                                       
20014411  SlNetIfWifi_setSockOpt                                          
20014471  CaptureCC32XX_stop                                              
200144cd  GPIO_setCallback                                                
20014529  _SlInternalSpawn                                                
20014585  close                                                           
200145e1  frexp                                                           
200145e1  frexpl                                                          
20014699  ti_sysbios_family_arm_m3_Timer_start__E                         
200146f5  ti_sysbios_family_arm_m3_Hwi_delete                             
200146f9  ti_sysbios_knl_Swi_schedule__I                                  
20014755  ti_sysbios_family_arm_m3_TaskSupport_Module__startupDone__S     
20014755  ti_sysbios_knl_Task_SupportProxy_Module__startupDone__S         
20014759  ti_sysbios_knl_Task_startCore__E                                
200147b5  ti_sysbios_heaps_HeapMem_Module_GateProxy_enter__E              
200147b9  xdc_runtime_Startup_exec__E                                     
20014815  GPIO_write                                                      
2001486d  HOSTread                                                        
200148c5  HOSTwrite                                                       
2001491d  PRCMPeripheralReset                                             
20014975  Power_releaseDependency                                         
200149cd  SlNetSock_recv                                                  
20014a25  SlNetSock_send                                                  
20014ad5  ti_sysbios_heaps_HeapMem_Module_GateProxy_leave__E              
20014ad9  pthread_mutex_init                                              
20014b31  sl_Listen                                                       
20014b89  sl_RegisterLibsEventHandler                                     
20014be1  ti_sysbios_family_arm_cc32xx_Seconds_getCount__I                
20014c39  TimerCC32XX_stop                                                
20014ce5  _SlDrvRxIrqHandler                                              
20014d39  ltoa                                                            
20014de1  ti_sysbios_family_arm_cc32xx_Seconds_getTime__E                 
20014de1  ti_sysbios_hal_Seconds_SecondsProxy_getTime__E                  
20014de1  ti_sysbios_hal_Seconds_getTime__E                               
20014e35  ti_sysbios_family_arm_m3_Hwi_create                             
20014e89  ti_sysbios_family_arm_m3_Timer_setPeriod__E                     
20014edd  PowerCC32XX_resumeLPDS                                          
20014fd5  ClockP_create                                                   
20015025  NwpRegisterInterruptHandler                                     
20015075  SlNetIf_queryIf                                                 
200150c5  TimerCC32XX_allocateTimerResource                               
20015165  _SlDrvCmdSend_noWait                                            
20015205  _SlInternalSpawnTaskEntry                                       
20015255  _SlNetAppHttpServerHdlr                                         
200152a5  _SlNetAppRequestHdlr                                            
20015345  ti_sysbios_knl_Clock_TimerProxy_getMaxTicks__E                  
20015349  ti_sysbios_family_arm_m3_Hwi_Module_startup__E                  
20015399  ti_sysbios_knl_Clock_Instance_init__E                           
200153e9  ti_sysbios_knl_Task_create                                      
20015439  GPIO_enableInt                                                  
20015485  NwpWaitForShutDownInd                                           
200154d1  PowerCC32XX_parkPin                                             
2001551d  SlNetIfWifi_getConnectionStatus                                 
200155b5  SlNetSock_startSec                                              
20015601  __TI_doflush                                                    
2001564d  atoi                                                            
20015699  copy_in                                                         
2001577d  initCapture                                                     
200157c9  readMHZ16                                                       
20015861  sl_WlanSetMode                                                  
200158ad  ti_sysbios_family_arm_m3_TaskSupport_buildTaskStack             
200158f9  ti_sysbios_heaps_HeapMem_getStats__E                            
20015945  ti_sysbios_knl_Clock_TimerProxy_setPeriodMicroSecs__E           
20015949  ti_sysbios_knl_Swi_runLoop__I                                   
20015995  ti_sysbios_knl_Clock_TimerProxy_start__E                        
20015999  ti_sysbios_knl_Task_allBlockedFunction__I                       
200159e5  ti_sysbios_knl_Clock_TimerProxy_stop__E                         
200159e9  ti_sysbios_knl_Task_schedule__I                                 
20015a35  FlashDisable                                                    
20015a7d  PRCMLPDSEnter                                                   
20015ac5  PRCMPeripheralClkEnable                                         
20015b0d  Power_releaseConstraint                                         
20015b55  SlNetSock_connect                                               
20015b9d  SlNetSock_init                                                  
20015be5  _SlDeviceFatalErrorEvtHdlr                                      
20015c2d  _SlDeviceGeneralEvtHdlr                                         
20015c75  _SlDrvSyncObjWaitTimeout                                        
20015cbd  _SlNetAppEvtHdlr                                                
20015d05  _SlNetAppRequestMemFree                                         
20015d4d  _SlSockEvtHdlr                                                  
20015d95  _SlWlanEvtHdlr                                                  
20015ddd  capture                                                         
20015e25  __aeabi_d2iz                                                    
20015e6d  ti_sysbios_knl_Clock_delete                                     
20015e71  ti_sysbios_family_arm_m3_Hwi_disableInterrupt__E                
20015e71  ti_sysbios_hal_Hwi_HwiProxy_disableInterrupt__E                 
20015e71  ti_sysbios_hal_Hwi_disableInterrupt__E                          
20015eb9  ti_sysbios_family_arm_m3_Hwi_enableInterrupt__E                 
20015eb9  ti_sysbios_hal_Hwi_HwiProxy_enableInterrupt__E                  
20015eb9  ti_sysbios_hal_Hwi_enableInterrupt__E                           
20015f01  ti_sysbios_family_arm_m3_Hwi_initStacks__E                      
20015f49  ti_sysbios_family_arm_m3_Timer_initDevice__I                    
20015f91  ti_sysbios_knl_Mailbox_Module_startup__E                        
20015fd9  xdc_runtime_Core_assignParams__I                                
20016021  RingBuf_put                                                     
200160ad  Capture_init                                                    
200160f1  HOSTclose                                                       
20016135  HOSTunlink                                                      
20016179  HTTPClient_create                                               
200161bd  PRCMLPDSRestoreInfoSet                                          
20016201  PWM_init                                                        
20016245  PowerCC32XX_enterLPDS                                           
20016289  SPI_init                                                        
20016311  Timer_init                                                      
20016355  UART_init                                                       
20016399  UNO                                                             
200163dd  _c_int00                                                        
20016421  getdevice                                                       
20016465  __aeabi_d2uiz                                                   
200164a9  ti_sysbios_family_arm_m3_Hwi_getStackInfo__E                    
200164a9  ti_sysbios_hal_Hwi_HwiProxy_getStackInfo__E                     
200164a9  ti_sysbios_hal_Hwi_getStackInfo__E                              
200164ed  ti_sysbios_knl_Semaphore_delete                                 
200164f1  ti_sysbios_knl_Mailbox_postInit__I                              
20016535  ti_sysbios_knl_Task_delete                                      
20016539  ti_sysbios_knl_Swi_post__E                                      
2001657d  xdc_runtime_System_Module_GateProxy_enter__E                    
20016581  xdc_runtime_System_atexit__E                                    
20016609  Capture_open                                                    
20016689  HwiP_create                                                     
200166c9  PWM_open                                                        
20016709  PinModeSet                                                      
20016749  RingBuf_get                                                     
20016789  SPI_open                                                        
200167c9  SlNetSock_secAttribSet                                          
20016809  Timer_open                                                      
20016849  UARTCC32XX_read                                                 
20016889  UART_open                                                       
200168c9  UDMACC32XX_init                                                 
20016909  _SlDrvGlobalObjUnLock                                           
20016949  _SlFindAndReleasePendingCmd                                     
20016989  _SlInternalSpawnWaitForEvent                                    
200169c9  _SlIsEventRegistered                                            
20016a49  sprintf                                                         
20016a89  ti_sysbios_heaps_HeapMem_Instance_init__E                       
20016ac9  vsnprintf                                                       
20016b09  SlNetSock_close                                                 
20016bc3  CaptureCC32XX_control                                           
20016bc9  sem_timedwait                                                   
20016c09  Power_setConstraint                                             
20016c45  SemaphoreP_create                                               
20016cbd  xdc_runtime_System_Module_GateProxy_leave__E                    
20016cc1  pthread_mutex_unlock                                            
20016d01  sleep                                                           
20016d41  ti_sysbios_family_arm_m3_Hwi_Instance_finalize__E               
20016d81  ti_sysbios_family_arm_m3_Timer_setPeriodMicroSecs__E            
20016dbd  ti_sysbios_knl_Clock_create                                     
20016df9  ti_sysbios_knl_Clock_getTicksUntilTimeout__E                    
20016df9  ti_sysbios_knl_Clock_walkQueuePeriodic__E                       
20016e39  ti_sysbios_knl_Swi_restore__E                                   
20016eb1  usleep                                                          
20016ef1  xdc_runtime_System_processAtExit__E                             
20016f2d  SlNetIfWifi_getIPAddr                                           
20016f67  TimerCC32XX_close                                               
200170c5  GPIO_read                                                       
200170fd  PRCMLPDSEnterKeepDebugIf                                        
20017135  SlNetIfWifi_recvFrom                                            
2001716d  SlNetIfWifi_sendTo                                              
200171a5  SlNetIfWifi_socket                                              
20017215  SlNetUtil_htonl                                                 
20017215  SlNetUtil_ntohl                                                 
2001724d  __TI_writemsg                                                   
2001727b  C$$IO$$                                                         
200172bd  printError                                                      
20017331  ti_sysbios_knl_Task_processVitalTaskFlag__I                     
20017369  SlNetIfWifi_getHostByName                                       
2001739f  SlNetIfWifi_select                                              
2001740b  TimerControlStall                                               
20017441  UARTCC32XX_readCancel                                           
20017477  strncpy                                                         
200174ad  COMENZAR                                                        
200174e1  CtoF                                                            
20017515  PinModeGet                                                      
20017549  PowerCC32XX_restoreParkState                                    
2001757d  SlNetUtil_htons                                                 
2001757d  SlNetUtil_ntohs                                                 
200175b1  TimerCC32XX_freeTimerResource                                   
200175e5  UDMACC32XX_close                                                
20017619  ZERO                                                            
2001764d  __TI_cleanup                                                    
20017681  __TI_readmsg                                                    
20017721  strstr                                                          
20017759  ti_sysbios_family_arm_m3_Timer_periodicStub__I                  
2001778d  ti_sysbios_knl_Semaphore_create                                 
200177c1  ti_sysbios_hal_Hwi_initStack                                    
200177f3  PowerCC32XX_restoreParkedPin                                    
20017825  TimerControlEvent                                               
200178b5  finddevice                                                      
200178e5  ti_sysbios_BIOS_atExitFunc__I                                   
20017915  ti_sysbios_BIOS_startFunc__I                                    
20017949  ti_sysbios_family_arm_m3_TaskSupport_start__E                   
20017949  ti_sysbios_knl_Task_SupportProxy_start__E                       
20017979  ti_sysbios_gates_GateHwi_Object__create__S                      
200179a9  ti_sysbios_gates_GateMutex_Object__create__S                    
200179d9  ti_sysbios_gates_GateMutex_enter__E                             
20017a09  ti_sysbios_heaps_HeapMem_Object__create__S                      
20017a39  ti_sysbios_knl_Semaphore_construct                              
20017a69  ti_sysbios_knl_Semaphore_pendTimeout__I                         
20017a99  ti_sysbios_knl_Task_restore__E                                  
20017ac9  ti_sysbios_knl_Task_unblockI__E                                 
20017af9  Mutex_create_handle                                             
20017b27  __aeabi_i2d                                                     
20017b55  malloc                                                          
20017b83  HTTPClient_destroy                                              
20017bb1  NwpPowerOn                                                      
20017bdd  PowerCC32XX_getParkState                                        
20017c09  SemaphoreP_createBinary                                         
20017c35  SlNetIfWifi_recv                                                
20017c61  SlNetIfWifi_send                                                
20017c8d  _SlDrvSyncObjWaitForever                                        
20017cb9  _pthread_cleanupFxn                                             
20017d45  lcd_character                                                   
20017d71  lcd_command                                                     
20017d9d  lcd_string                                                      
20017dc9  strncmp                                                         
20017df5  ti_sysbios_gates_GateHwi_Handle__label__S                       
20017df5  xdc_runtime_Main_Module_GateProxy_Handle__label__S              
20017df5  xdc_runtime_System_Module_GateProxy_Handle__label__S            
20017e21  ti_sysbios_BIOS_RtsGateProxy_Handle__label__S                   
20017e21  ti_sysbios_gates_GateMutex_Handle__label__S                     
20017e21  ti_sysbios_heaps_HeapMem_Module_GateProxy_Handle__label__S      
20017e4d  ti_sysbios_heaps_HeapMem_Handle__label__S                       
20017e4d  xdc_runtime_Memory_HeapProxy_Handle__label__S                   
20017e79  ti_sysbios_knl_Clock_doTick__I                                  
20017ea5  ti_sysbios_knl_Queue_construct                                  
20017ed1  remove                                                          
20017ed1  unlink                                                          
20017efd  SlNetUtil_inetPton                                              
20017f27  TimerLoadSet                                                    
20017f51  TimerPrescaleSet                                                
20017f7b  calloc                                                          
20017fa9  sem_init                                                        
20017fd5  DHT_begin                                                       
20017ffd  PRCMPeripheralClkDisable                                        
20018025  PowerCC32XX_initPolicy                                          
2001804d  Power_registerNotify                                            
20018075  SlNetIf_getIfByID                                               
2001809d  SlNetSock_secAttribDelete                                       
200180c5  _SlDrvProtectionObjLockWaitForever                              
200180ed  _SlDrvProtectionObjUnLock                                       
20018115  _SlFlowContSet                                                  
2001813d  lseek                                                           
20018165  ti_sysbios_family_arm_m3_Hwi_excHandlerAsm__I                   
20018191  ti_sysbios_knl_Clock_addI__E                                    
200181b9  ti_sysbios_knl_Swi_Module_startup__E                            
200181e1  write                                                           
20018209  List_put                                                        
2001822f  List_remove                                                     
20018255  PowerCC32XX_reset                                               
20018279  SlNetIf_getConnectionStatus                                     
2001829d  SlNetSock_getIfID                                               
200182c1  _SlDrvIsApiInProgress                                           
200182e5  _SlDrvStartMeasureTimeout                                       
20018309  pthread_attr_init                                               
2001832d  ti_sysbios_BIOS_registerRTSLock__I                              
20018351  ti_sysbios_BIOS_removeRTSLock__I                                
20018379  ti_sysbios_family_arm_m3_Timer_postInit__I                      
200183a1  ti_sysbios_family_arm_m3_Timer_startup__E                       
200183a1  ti_sysbios_knl_Clock_TimerProxy_startup__E                      
200183c5  ti_sysbios_gates_GateMutex_Object__delete__S                    
200183e9  ti_sysbios_knl_Clock_Module_startup__E                          
2001840d  ti_sysbios_knl_Clock_Object__delete__S                          
20018431  ti_sysbios_knl_Clock_start__E                                   
20018459  ti_sysbios_knl_Semaphore_Instance_init__E                       
2001847d  ti_sysbios_knl_Semaphore_Object__delete__S                      
200184a1  ti_sysbios_knl_Task_restoreHwi__E                               
200184c9  xdc_runtime_Error_policyMin__E                                  
200184ed  TimerValueSet                                                   
20018511  Power_unregisterNotify                                          
20018531  RingBuf_peek                                                    
20018551  SlNetIfWifi_accept                                              
200185b1  memchr                                                          
200185d1  __aeabi_ui2d                                                    
200185f1  ti_sysbios_BIOS_rtsLock__I                                      
20018611  ti_sysbios_family_arm_m3_Hwi_Object__delete__S                  
20018631  ti_sysbios_family_arm_m3_Hwi_clearInterrupt__E                  
20018631  ti_sysbios_hal_Hwi_HwiProxy_clearInterrupt__E                   
20018631  ti_sysbios_hal_Hwi_clearInterrupt__E                            
20018651  ti_sysbios_gates_GateHwi_Object__delete__S                      
20018671  ti_sysbios_heaps_HeapMem_Object__delete__S                      
20018691  ti_sysbios_knl_Idle_run__E                                      
200186b1  ti_sysbios_knl_Semaphore_destruct                               
200186d1  ti_sysbios_knl_Task_Object__delete__S                           
200186f1  SlNetIfWifi_bind                                                
2001870f  SlNetIfWifi_connect                                             
2001872d  TimerDisable                                                    
2001874b  TimerEnable                                                     
20018769  _SlDrvObjLockWaitForever                                        
20018787  _SlDrvObjUnLock                                                 
200187a5  _SlDrvSyncObjSignal                                             
200187ff  strcat                                                          
2001881d  ti_sysbios_family_xxx_Hwi_switchAndRunFunc                      
2001883d  PinToPadGet                                                     
20018859  TimerValueGet                                                   
20018891  _SlInternalIsItSpawnThread                                      
200188ad  memccpy                                                         
200188c9  ti_sysbios_family_arm_m3_Hwi_excHandler__I                      
200188e9  ti_sysbios_family_arm_m3_Timer_Module_startup__E                
20018909  ti_sysbios_family_arm_m3_Timer_stop__E                          
20018929  ti_sysbios_gates_GateMutex_Instance_init__E                     
20018949  ti_sysbios_knl_Clock_Instance_finalize__E                       
20018965  ti_sysbios_knl_Queue_destruct                                   
20018981  ti_sysbios_knl_Queue_put__E                                     
200189a1  ti_sysbios_knl_Task_enter__I                                    
200189c1  ti_sysbios_rts_ti_ReentSupport_getReent__E                      
200189c1  ti_sysbios_rts_ti_ReentSupport_getReent__F                      
200189f9  SlNetIfWifi_listen                                              
20018a13  free                                                            
20018a2d  ti_sysbios_family_arm_m3_Hwi_pendSV__I                          
20018a45  ti_sysbios_family_arm_m3_Hwi_return                             
20018a49  Power_idleFunc                                                  
20018a61  TimerCC32XX_getCount                                            
20018a79  TimerIntDisable                                                 
20018a91  TimerIntEnable                                                  
20018aa9  UARTBusy                                                        
20018ac1  UARTIntEnable                                                   
20018ad9  UART_Params_init                                                
20018af1  _args_main                                                      
20018b51  restartCapture                                                  
20018b69  __aeabi_lmul                                                    
20018b81  strcmp                                                          
20018b99  ti_sysbios_BIOS_rtsUnlock__I                                    
20018bb1  ti_sysbios_family_arm_m3_Hwi_Module__startupDone__F             
20018bb1  ti_sysbios_family_arm_m3_Hwi_Module__startupDone__S             
20018bb1  ti_sysbios_hal_Hwi_HwiProxy_Module__startupDone__S              
20018bc9  ti_sysbios_family_arm_m3_Timer_Module__startupDone__F           
20018bc9  ti_sysbios_family_arm_m3_Timer_Module__startupDone__S           
20018bc9  ti_sysbios_knl_Clock_TimerProxy_Module__startupDone__S          
20018be1  ti_sysbios_gates_GateMutex_leave__E                             
20018bf9  ti_sysbios_knl_Task_sleepTimeout__I                             
20018c11  ti_sysbios_rts_ti_ReentSupport_getTlsAddr__I                    
20018c29  timer_callback                                                  
20018c41  xdc_runtime_Error_init__E                                       
20018c59  xdc_runtime_System_exit__E                                      
20018c71  PRCMHIBRegRead                                                  
20018c87  PRCMHIBRegWrite                                                 
20018c9d  _SlDrvMemZero                                                   
20018cc9  getPPM                                                          
20018ce1  pthread_mutex_destroy                                           
20018cf7  strchr                                                          
20018d0d  ti_sysbios_BIOS_exitFunc__I                                     
20018d25  PWM_Params_init                                                 
20018d39  Power_getDependencyCount                                        
20018d4d  SPI_Params_init                                                 
20018d61  pthread_attr_setschedparam                                      
20018d89  strcpy                                                          
20018d9d  strlen                                                          
20018db1  ti_sysbios_family_arm_m3_Hwi_Object__get__S                     
20018dc9  ti_sysbios_family_arm_m3_Hwi_switchFromBootStack__E             
20018dc9  ti_sysbios_hal_Hwi_HwiProxy_switchFromBootStack__E              
20018dc9  ti_sysbios_hal_Hwi_switchFromBootStack__E                       
20018ddd  ti_sysbios_heaps_HeapMem_Object__get__S                         
20018df1  ti_sysbios_knl_Clock_tickReconfig__E                            
20018e05  ti_sysbios_knl_Swi_Object__get__S                               
20018e19  timerCallback                                                   
20018e2d  RingBuf_construct                                               
20018e3f  SemaphoreP_pend                                                 
20018e51  SlNetIfWifi_close                                               
20018e63  TimerIntClear                                                   
20018ea1  ti_sysbios_hal_Hwi_Module_startup__E                            
20018eb3  wcslen                                                          
20018ec5  xdc_runtime_Startup_exec__I                                     
20018ed7  Board_init                                                      
20018ee9  Capture_Params_init                                             
20018ef9  HwiP_Params_init                                                
20018f09  SlNetSock_secAttribCreate                                       
20018f19  Timer_Params_init                                               
20018f29  _SlDrvDispatchHttpServerEvents                                  
20018f39  _SlDrvDispatchNetAppRequestEvents                               
20018f49  _SlDrvIsSpawnOwnGlobalLock                                      
20018f69  pthread_mutexattr_init                                          
20018f79  pthread_mutexattr_settype                                       
20018fa9  ti_sysbios_BIOS_getCpuFreq__E                                   
20018fb9  ti_sysbios_BIOS_setThreadType__E                                
20018fc9  ti_sysbios_BIOS_start__E                                        
20018fd9  ti_sysbios_family_arm_m3_TaskSupport_glue                       
20018fe9  ti_sysbios_family_arm_m3_TaskSupport_swap__E                    
20018fe9  ti_sysbios_knl_Task_SupportProxy_swap__E                        
20018ff1  ti_sysbios_knl_Task_swapReturn                                  
20018ff9  ti_sysbios_gates_GateMutex_Instance_finalize__E                 
20019009  ti_sysbios_knl_Mailbox_Object__get__S                           
20019019  ti_sysbios_knl_Semaphore_Instance_finalize__E                   
20019029  ti_sysbios_knl_Swi_disable__E                                   
20019039  ti_sysbios_knl_Task_Object__get__S                              
20019049  ti_sysbios_knl_Task_disable__E                                  
20019059  xdc_runtime_Memory_free__E                                      
20019069  xdc_runtime_SysCallback_abort__E                                
20019069  xdc_runtime_System_SupportProxy_abort__E                        
20019079  xdc_runtime_SysCallback_exit__E                                 
20019079  xdc_runtime_System_SupportProxy_exit__E                         
20019089  RingBuf_isFull                                                  
20019097  _SlDrvResetCmdExt                                               
200190a5  __TI_decompress_none                                            
200190c1  pthread_attr_setdetachstate                                     
200190d1  sem_wait                                                        
200190df  spi_Close                                                       
200190f1  ti_sysbios_knl_Idle_loop__E                                     
20019101  ti_sysbios_knl_Queue_empty__E                                   
2001910f  ClockP_delete                                                   
2001911d  ClockP_getSystemTickPeriod                                      
20019129  HwiP_delete                                                     
20019135  NwpMaskInterrupt                                                
20019141  NwpUnMaskInterrupt                                              
2001914d  Power_getConstraintMask                                         
20019159  SemaphoreP_delete                                               
20019165  SimpleLinkHttpServerEventHandler                                
20019171  SimpleLinkNetAppRequestEventHandler                             
2001917d  _SlDeviceResetRequestInitCompletedCB                            
20019189  _register_lock                                                  
20019195  _register_unlock                                                
200191a1  copysign                                                        
200191a1  copysignl                                                       
200191ad  __TI_zero_init                                                  
200191e1  pthread_self                                                    
200191ed  ti_sysbios_family_arm_m3_Hwi_Params__init__S                    
200191ed  ti_sysbios_hal_Hwi_HwiProxy_Params__init__S                     
200191f9  ti_sysbios_family_arm_m3_Hwi_disableFxn__E                      
200191f9  ti_sysbios_hal_Hwi_HwiProxy_disable__E                          
20019209  ti_sysbios_family_arm_m3_TaskSupport_getStackAlignment__E       
20019209  ti_sysbios_knl_Task_SupportProxy_getStackAlignment__E           
20019219  ti_sysbios_gates_GateHwi_enter__E                               
20019225  ti_sysbios_knl_Clock_Params__init__S                            
20019231  ClockP_getSystemTicks                                           
20019231  ti_sysbios_knl_Clock_getTicks__E                                
20019241  ti_sysbios_knl_Clock_setTicks__E                                
20019251  ti_sysbios_knl_Clock_tickStart__E                               
20019261  ti_sysbios_knl_Clock_tickStop__E                                
2001926d  ti_sysbios_knl_Queue_Object__get__S                             
20019279  ti_sysbios_knl_Semaphore_Params__init__S                        
20019285  ti_sysbios_knl_Task_Params__init__S                             
20019291  ti_sysbios_knl_Task_self__E                                     
200192a1  ti_sysbios_rts_ti_ReentSupport_taskRegHook__I                   
200192ad  uDMAErrorStatusClear                                            
200192b9  uDMAErrorStatusGet                                              
200192c9  xdc_runtime_Startup_rtsDone__E                                  
200192d5  Capture_close                                                   
200192df  Capture_start                                                   
200192e9  Capture_stop                                                    
200192f3  ClockP_Params_init                                              
200192fd  PWM_setDuty                                                     
20019307  PWM_start                                                       
20019311  PWM_stop                                                        
2001931b  SPI_close                                                       
20019325  SPI_transfer                                                    
2001932f  SimpleLinkFatalErrorEventHandler                                
20019339  SimpleLinkGeneralEventHandler                                   
20019343  SimpleLinkNetAppRequestMemFreeEventHandler                      
2001934d  SimpleLinkSockEventHandler                                      
20019357  SimpleLinkWlanEventHandler                                      
20019361  Timer_close                                                     
2001936b  Timer_setPeriod                                                 
20019375  Timer_start                                                     
2001937f  Timer_stop                                                      
20019389  UART_control                                                    
20019393  UART_read                                                       
2001939d  UART_write                                                      
200193b1  sem_destroy                                                     
200193bb  PWMTimerCC32XX_control                                          
200193c1  sem_post                                                        
200193cb  sl_Task                                                         
200193d5  xdc_runtime_Memory_HeapProxy_alloc__E                           
200193df  xdc_runtime_Memory_HeapProxy_free__E                            
200193e9  SemaphoreP_Params_init                                          
200193f1  TimerGetCurrentTimestamp                                        
20019401  pthread_attr_setstacksize                                       
20019409  pthread_mutex_lock                                              
20019419  sem_getvalue                                                    
20019421  ti_sysbios_family_arm_m3_Hwi_doSwiRestore__I                    
20019429  ti_sysbios_family_arm_m3_Hwi_startup__E                         
20019429  ti_sysbios_hal_Hwi_HwiProxy_startup__E                          
20019429  ti_sysbios_hal_Hwi_startup__E                                   
20019439  SPICC32XXDMA_control                                            
2001943f  TimerCC32XX_control                                             
20019445  UtilsDelay                                                      
20019451  ti_sysbios_family_arm_m3_Hwi_doTaskRestore__I                   
20019459  HwiP_restore                                                    
20019459  ti_sysbios_family_arm_m3_Hwi_restoreFxn__E                      
20019459  ti_sysbios_hal_Hwi_HwiProxy_restore__E                          
20019461  ti_sysbios_gates_GateHwi_leave__E                               
20019469  ti_sysbios_heaps_HeapMem_isBlocking__E                          
20019471  ti_sysbios_knl_Clock_stop__E                                    
20019479  ti_sysbios_knl_Queue_Instance_init__E                           
20019481  ti_sysbios_knl_Swi_startup__E                                   
20019489  xdc_runtime_System_Module_startup__E                            
20019491  __aeabi_errno_addr                                              
20019499  ti_sysbios_family_arm_m3_Timer_getMaxTicks__E                   
200194a1  ti_sysbios_gates_GateHwi_query__E                               
200194a1  xdc_runtime_Main_Module_GateProxy_query__E                      
200194a1  xdc_runtime_System_Module_GateProxy_query__E                    
200194a9  ti_sysbios_BIOS_RtsGateProxy_query__E                           
200194a9  ti_sysbios_gates_GateMutex_query__E                             
200194a9  ti_sysbios_heaps_HeapMem_Module_GateProxy_query__E              
200194b1  ti_sysbios_knl_Clock_setTimeout__E                              
200194b9  ti_sysbios_knl_Task_startup__E                                  
200194c1  ti_sysbios_BIOS_linkedWithIncorrectBootLibrary__E               
200194c9  ti_sysbios_gates_GateHwi_Instance_init__E                       
200194d1  ti_sysbios_knl_Clock_logTick__E                                 
200194d9  xdc_runtime_SysCallback_defaultAbort                            
200194e1  xdc_runtime_SysCallback_defaultExit                             
200194e9  xdc_runtime_System_abortSpin__E                                 
200194f1  xdc_runtime_System_exitSpin__E                                  
200194f8  __primary_heap_start__                                          
200214f8  __primary_heap_end__                                            
20021c00  g_CB                                                            
20021ffc  ti_sysbios_family_arm_m3_Hwi_dispatchTable                      
20022308  ti_sysbios_knl_Task_Instance_State_0_stack__A                   
20022508  data                                                            
2002264c  PowerCC32XX_contextSave                                         
20022778  __CIOBUF_                                                       
20022898  __TI_tmpnams                                                    
20022938  uartCC32XXObjects0                                              
20022a3c  timerCC32XXObjects                                              
20022aa4  spiCC32XXDMAObjects                                             
20022ae8  captureCC32XXObjects                                            
20022b18  GlobalLockObj                                                   
20022b44  g_SlInternalSpawnCB                                             
20022b6c  CO2params                                                       
20022b90  paramsCO2                                                       
20022bb4  pwmTimerCC32XXObjects                                           
20022c5c  DHT_Data                                                        
20022c68  DeviceCB                                                        
20022c74  Msg                                                             
20022c80  args                                                            
20022c8c  captParams                                                      
20022c98  finaldata                                                       
20022ca4  packet                                                          
20022cb0  params                                                          
20022cc4  parmbuf                                                         
20022ccc  udmaCC3220SObject                                               
20022cdc  CO2uart                                                         
20022ce0  ClockP_tickPeriod                                               
20022ce4  buffer                                                          
20022ce8  captHandle                                                      
20022cec  i                                                               
20022cf0  j                                                               
20022cf4  mode                                                            
20022cf8  pwm1                                                            
20022cfc  spiCC32XXSDMAscratchBuf                                         
20022d00  ti_sysbios_knl_Task_Instance_State_0_hookEnv__A                 
20022d04  timer                                                           
20022d08  timer0                                                          
20022d0c  uartCO2                                                         
20022d10  D4                                                              
20022d11  D5                                                              
20022d12  D6                                                              
20022d13  D7                                                              
20022d14  E                                                               
20022d15  Rs                                                              
20022d16  RxIrqCnt                                                        
20022d17  TEMP                                                            
20022fa0  _ctypes_                                                        
200230a1  ti_sysbios_knl_Clock_tickMode__C                                
200230a2  ti_sysbios_family_arm_m3_Hwi_Module__id__C                      
2002324c  OpcodeTranslateTable                                            
200232bc  _SlActionLookupTable                                            
2002330c  PowerCC32XX_config                                              
2002334c  spiCC32XXDMAHWAttrs                                             
20023388  ti_sysbios_knl_Task_Object__PARAMS__C                           
2002345a  ti_sysbios_family_arm_m3_Timer_Module__id__C                    
2002345c  ti_sysbios_family_arm_m3_Hwi_Object__PARAMS__C                  
2002348c  UARTCC32XX_fxnTable                                             
200234b4  ti_sysbios_heaps_HeapMem_Module__FXNS__C                        
200234dc  PWMTimerCC32XX_fxnTable                                         
20023500  UART_defaultParams                                              
20023524  ti_sysbios_gates_GateHwi_Module__FXNS__C                        
20023548  ti_sysbios_gates_GateMutex_Module__FXNS__C                      
2002356c  ti_sysbios_heaps_HeapMem_Object__PARAMS__C                      
20023590  ti_sysbios_knl_Clock_Object__PARAMS__C                          
200235b4  ti_sysbios_knl_Semaphore_Object__PARAMS__C                      
2002363f  ti_sysbios_knl_Clock_tickSource__C                              
20023660  SPI_defaultParams                                               
200236a0  TimerCC32XX_fxnTable                                            
20023700  ti_sysbios_family_arm_m3_Hwi_Object__DESC__C                    
20023720  ti_sysbios_gates_GateHwi_Object__DESC__C                        
20023740  ti_sysbios_gates_GateMutex_Object__DESC__C                      
20023760  ti_sysbios_heaps_HeapMem_Object__DESC__C                        
20023780  ti_sysbios_knl_Clock_Object__DESC__C                            
200237a0  ti_sysbios_knl_Queue_Object__DESC__C                            
200237c0  ti_sysbios_knl_Semaphore_Object__DESC__C                        
200237e0  ti_sysbios_knl_Task_Object__DESC__C                             
20023800  timerCC32XXHWAttrs                                              
20023820  xdc_runtime_Startup_sfxnTab__A                                  
20023840  CaptureCC32XX_fxnTable                                          
20023858  PWM_defaultParams                                               
20023870  SPICC32XXDMA_fxnTable                                           
20023888  Timer_config                                                    
200238a0  ti_sysbios_gates_GateHwi_Object__PARAMS__C                      
200238b8  ti_sysbios_gates_GateMutex_Object__PARAMS__C                    
200238d0  ti_sysbios_knl_Queue_Object__PARAMS__C                          
200238e8  ti_sysbios_knl_Task_hooks__A                                    
20023978  GPIOCC32XX_config                                               
20023a3c  xdc_runtime_Startup_sfxnRts__A                                  
20023a58  Capture_config                                                  
20023a64  PWM_config                                                      
20023a70  SPI_config                                                      
20023a7c  UART_config                                                     
20023ac4  udmaCC3220SHWAttrs                                              
20023ad0  xdc_runtime_Startup_firstFxns__A                                
20023ae4  UDMACC32XX_config                                               
20023aec  captureCC32XXHWAttrs                                            
20023b0c  outPinTypes                                                     
20023b1c  ti_sysbios_knl_Idle_funcList__A                                 
20023b24  ti_sysbios_knl_Idle_funcList__C                                 
20023b2c  ti_sysbios_knl_Task_hooks__C                                    
20023b3c  xdc_runtime_Startup_firstFxns__C                                
20023b44  xdc_runtime_Startup_lastFxns__C                                 
20023b52  inPinTypes                                                      
20023b58  outPinStrengths                                                 
20023b5e  Capture_count                                                   
20023b5f  CryptoCC32XX_count                                              
20023b60  PWM_count                                                       
20023b61  SPI_count                                                       
20023b62  Timer_count                                                     
20023b63  UART_count                                                      
20023b94  _SlNetAppSendResponseCmdCtrl                                    
20023b98  _SlNetAppSendTokenValueCmdCtrl                                  
20023bc8  pwmTimerCC32XXHWAttrs                                           
20023bcc  ti_sysbios_family_arm_m3_Hwi_E_alreadyDefined__C                
20023bd0  ti_sysbios_family_arm_m3_Hwi_E_badIntNum__C                     
20023bd4  ti_sysbios_family_arm_m3_Hwi_NUM_INTERRUPTS__C                  
20023bd8  ti_sysbios_family_arm_m3_Hwi_Object__count__C                   
20023bdc  ti_sysbios_family_arm_m3_Hwi_ccr__C                             
20023be0  ti_sysbios_family_arm_m3_Hwi_excHandlerFunc__C                  
20023be4  ti_sysbios_family_arm_m3_Hwi_nullIsrFunc__C                     
20023be8  ti_sysbios_family_arm_m3_Hwi_priGroup__C                        
20023bec  ti_sysbios_family_arm_m3_Hwi_swiDisable__C                      
20023bf0  ti_sysbios_family_arm_m3_Hwi_swiRestore__C                      
20023bf4  ti_sysbios_family_arm_m3_TaskSupport_stackAlignment__C          
20023bf8  ti_sysbios_family_arm_m3_Timer_E_cannotSupport__C               
20023bfc  ti_sysbios_family_arm_m3_Timer_startupNeeded__C                 
20023c00  ti_sysbios_gates_GateMutex_Instance_State_sem__O                
20023c04  ti_sysbios_heaps_HeapMem_E_memory__C                            
20023c08  ti_sysbios_heaps_HeapMem_Module__gateObj__C                     
20023c0c  ti_sysbios_heaps_HeapMem_Object__count__C                       
20023c10  ti_sysbios_heaps_HeapMem_primaryHeapBaseAddr__C                 
20023c14  ti_sysbios_heaps_HeapMem_primaryHeapEndAddr__C                  
20023c18  ti_sysbios_heaps_HeapMem_reqAlign__C                            
20023c1c  ti_sysbios_knl_Clock_Module_State_clockQ__O                     
20023c20  ti_sysbios_knl_Clock_tickPeriod__C                              
20023c24  ti_sysbios_knl_Mailbox_Instance_State_freeQue__O                
20023c28  ti_sysbios_knl_Mailbox_Object__count__C                         
20023c2c  ti_sysbios_knl_Mailbox_maxTypeAlign__C                          
20023c30  ti_sysbios_knl_Semaphore_Instance_State_pendQ__O                
20023c34  ti_sysbios_knl_Swi_Object__count__C                             
20023c38  ti_sysbios_knl_Task_Module_State_inactiveQ__O                   
20023c3c  ti_sysbios_knl_Task_Object__count__C                            
20023c40  ti_sysbios_knl_Task_Object__heap__C                             
20023c44  ti_sysbios_knl_Task_allBlockedFunc__C                           
20023c48  ti_sysbios_knl_Task_defaultStackHeap__C                         
20023c4c  ti_sysbios_knl_Task_defaultStackSize__C                         
20023c50  ti_sysbios_knl_Task_numConstructedTasks__C                      
20023c54  xdc_runtime_Error_E_memory__C                                   
20023c58  xdc_runtime_Error_policyFxn__C                                  
20023c5c  xdc_runtime_IGateProvider_Interface__BASE__C                    
20023c60  xdc_runtime_IHeap_Interface__BASE__C                            
20023c64  xdc_runtime_IModule_Interface__BASE__C                          
20023c68  xdc_runtime_Memory_defaultHeapInstance__C                       
20023c6c  xdc_runtime_Startup_execImpl__C                                 
20023c70  xdc_runtime_Startup_maxPasses__C                                
20023c74  xdc_runtime_Startup_sfxnRts__C                                  
20023c78  xdc_runtime_Startup_sfxnTab__C                                  
20023c7c  xdc_runtime_SysCallback_abortFxn__C                             
20023c80  xdc_runtime_SysCallback_exitFxn__C                              
20023c84  xdc_runtime_System_Module__gateObj__C                           
20023c88  xdc_runtime_System_abortFxn__C                                  
20023c8c  xdc_runtime_System_exitFxn__C                                   
20023c90  xdc_runtime_System_maxAtexitHandlers__C                         
20023c94  ti_sysbios_heaps_HeapMem_Module__id__C                          
20023c96  xdc_runtime_Memory_Module__id__C                                
20023c98  xdc_runtime_Error_policy__C                                     
20023c9c  s_text                                                          
20023e2c  PowerCC32XX_module                                              
20023f98  parkInfo                                                        
20024090  _ftable                                                         
20024180  ARRAY_OFF                                                       
20024244  ARRAY_ON                                                        
20024448  ti_sysbios_knl_Swi_Module_State_0_readyQ__A                     
200244c8  ti_sysbios_knl_Task_Module_State_0_readyQ__A                    
20024548  _device                                                         
200245c0  SlNetIfConfigWifi                                               
20024618  ti_sysbios_gates_GateMutex_Object__table__V                     
200246bc  _stream                                                         
2002470c  ti_sysbios_knl_Task_Object__table__V                            
20024758  ti_sysbios_knl_Task_Module__state__V                            
2002479c  ti_sysbios_family_arm_m3_Hwi_Module__state__V                   
200247d0  gpioCallbackFunctions                                           
20024800  gpioPinConfigs                                                  
20024830  ti_sysbios_family_arm_m3_Timer_Object__table__V                 
20024860  ti_sysbios_knl_Swi_Object__table__V                             
20024890  ti_sysbios_knl_Clock_Module__state__V                           
200248bc  g_LibsEvents                                                    
200248e0  g_UserEvents                                                    
20024904  ti_sysbios_BIOS_Module__state__V                                
20024928  edit                                                            
20024929  screen                                                          
2002492a  c_pos                                                           
2002492b  cursor                                                          
2002492c  seconds                                                         
2002492e  maxT                                                            
20024930  minT                                                            
20024932  maxH                                                            
20024934  minH                                                            
20024936  maxC                                                            
20024938  minC                                                            
2002493a  Temp                                                            
2002493c  Hum                                                             
2002493e  CO                                                              
20024940  T                                                               
20024941  H                                                               
20024942  C                                                               
20024943  R1                                                              
20024944  R2                                                              
20024945  flag                                                            
20024946  olda                                                            
20024947  oldb                                                            
20024948  newa                                                            
20024949  newb                                                            
2002494a  lookup_index                                                    
2002494c  xdc_runtime_Error_IgnoreBlock                                   
2002496c  HTTP_METHOD_GET                                                 
20024970  HTTP_METHOD_POST                                                
20024974  HTTP_METHOD_HEAD                                                
20024978  HTTP_METHOD_OPTIONS                                             
2002497c  HTTP_METHOD_PUT                                                 
20024980  HTTP_METHOD_DELETE                                              
20024984  HTTP_METHOD_CONNECT                                             
20024988  ti_sysbios_knl_Swi_Module__state__V                             
200249a4  ti_sysbios_family_arm_m3_Hwi_Object__table__V                   
200249bc  ti_sysbios_heaps_HeapMem_Object__table__V                       
200249e4  __TI_ft_end                                                     
200249e8  __aeabi_stdin                                                   
200249ec  __aeabi_stdout                                                  
200249f0  __aeabi_stderr                                                  
200249f4  ti_sysbios_family_arm_cc32xx_Seconds_Module__state__V           
20024a04  __TI_cleanup_ptr                                                
20024a08  __TI_dtors_ptr                                                  
20024a0c  __TI_enable_exit_profile_output                                 
20024a10  gGlobalLockCntRequested                                         
20024a11  gGlobalLockCntReleased                                          
20024a12  g_SlDeviceStatus                                                
20024a14  g_pCB                                                           
20024a18  pPingCallBackFunc                                               
20024a1c  ti_sysbios_family_arm_m3_Timer_Module__state__V                 
20024a31  readCO2                                                         
20024a3a  ti_sysbios_family_arm_m3_Hwi_Module_State_0_excActive__A        
20024a3c  _lock                                                           
20024a40  _unlock                                                         
20024a44  countData                                                       
20024a48  allDataCaptured                                                 
20024a54  httpThread                                                      
20024a58  spawn_thread                                                    
20024a5c  ti_sysbios_family_arm_m3_Hwi_Module__root__V                    
20024a64  ti_sysbios_gates_GateHwi_Module__root__V                        
20024a6c  ti_sysbios_gates_GateMutex_Module__root__V                      
20024a74  ti_sysbios_heaps_HeapMem_Module__root__V                        
20024a7c  ti_sysbios_knl_Clock_Module__root__V                            
20024a84  ti_sysbios_knl_Queue_Module__root__V                            
20024a8c  ti_sysbios_knl_Semaphore_Module__root__V                        
20024a94  ti_sysbios_knl_Task_Module__root__V                             
20024a9c  xdc_runtime_Startup_Module__state__V                            
20024aa4  xdc_runtime_System_Module_State_0_atexitHandlers__A             
20024aac  xdc_runtime_System_Module__state__V                             
20024ab4  main_func_sp                                                    
20024ab8  g_intHandle                                                     
20024ac0  ti_sysbios_family_arm_m3_Hwi_Module_State_0_excContext__A       
20024ac4  ti_sysbios_family_arm_m3_Hwi_Module_State_0_excStack__A         
20024ac8  ti_sysbios_gates_GateHwi_Object__table__V                       
20024acc  ti_sysbios_knl_Task_Module_State_0_idleTask__A                  
20024ad0  ti_sysbios_rts_ti_ReentSupport_Module__state__V                 
20024ad4  xdc_runtime_Memory_Module__state__V                             
20024ae0  __TI_static_base__                                              
20024f60  __TI_Handler_Table_Base                                         
20024f6c  __TI_Handler_Table_Limit                                        
20024f78  __TI_CINIT_Base                                                 
20024f88  __TI_CINIT_Limit                                                
e000e000  ti_sysbios_family_arm_m3_Hwi_nvic                               
ffffffff  __TI_pprof_out_hndl                                             
ffffffff  __TI_prof_data_size                                             
ffffffff  __TI_prof_data_start                                            
ffffffff  __binit__                                                       
ffffffff  __c_args__                                                      
ffffffff  binit                                                           
UNDEFED   SHT$$INIT_ARRAY$$Base                                           
UNDEFED   SHT$$INIT_ARRAY$$Limit                                          

[1030 symbols]
